
malware.exe:     file format pei-x86-64


Disassembly of section .text:

0000000140001000 <.text>:
   140001000:	48 8d 05 09 3e 03 00 	lea    0x33e09(%rip),%rax        # 0x140034e10
   140001007:	c3                   	retq   
   140001008:	cc                   	int3   
   140001009:	cc                   	int3   
   14000100a:	cc                   	int3   
   14000100b:	cc                   	int3   
   14000100c:	cc                   	int3   
   14000100d:	cc                   	int3   
   14000100e:	cc                   	int3   
   14000100f:	cc                   	int3   
   140001010:	48 89 54 24 10       	mov    %rdx,0x10(%rsp)
   140001015:	4c 89 44 24 18       	mov    %r8,0x18(%rsp)
   14000101a:	4c 89 4c 24 20       	mov    %r9,0x20(%rsp)
   14000101f:	53                   	push   %rbx
   140001020:	56                   	push   %rsi
   140001021:	57                   	push   %rdi
   140001022:	48 83 ec 30          	sub    $0x30,%rsp
   140001026:	48 8b fa             	mov    %rdx,%rdi
   140001029:	48 8d 74 24 60       	lea    0x60(%rsp),%rsi
   14000102e:	48 8b d9             	mov    %rcx,%rbx
   140001031:	e8 ca ff ff ff       	callq  0x140001000
   140001036:	45 33 c9             	xor    %r9d,%r9d
   140001039:	48 89 74 24 20       	mov    %rsi,0x20(%rsp)
   14000103e:	4c 8b c7             	mov    %rdi,%r8
   140001041:	48 8b d3             	mov    %rbx,%rdx
   140001044:	48 8b 08             	mov    (%rax),%rcx
   140001047:	e8 54 18 01 00       	callq  0x1400128a0
   14000104c:	48 83 c4 30          	add    $0x30,%rsp
   140001050:	5f                   	pop    %rdi
   140001051:	5e                   	pop    %rsi
   140001052:	5b                   	pop    %rbx
   140001053:	c3                   	retq   
   140001054:	cc                   	int3   
   140001055:	cc                   	int3   
   140001056:	cc                   	int3   
   140001057:	cc                   	int3   
   140001058:	cc                   	int3   
   140001059:	cc                   	int3   
   14000105a:	cc                   	int3   
   14000105b:	cc                   	int3   
   14000105c:	cc                   	int3   
   14000105d:	cc                   	int3   
   14000105e:	cc                   	int3   
   14000105f:	cc                   	int3   
   140001060:	4c 89 44 24 18       	mov    %r8,0x18(%rsp)
   140001065:	4c 89 4c 24 20       	mov    %r9,0x20(%rsp)
   14000106a:	53                   	push   %rbx
   14000106b:	55                   	push   %rbp
   14000106c:	56                   	push   %rsi
   14000106d:	57                   	push   %rdi
   14000106e:	48 83 ec 38          	sub    $0x38,%rsp
   140001072:	49 8b f0             	mov    %r8,%rsi
   140001075:	48 8d 6c 24 78       	lea    0x78(%rsp),%rbp
   14000107a:	48 8b da             	mov    %rdx,%rbx
   14000107d:	48 8b f9             	mov    %rcx,%rdi
   140001080:	e8 7b ff ff ff       	callq  0x140001000
   140001085:	48 89 6c 24 28       	mov    %rbp,0x28(%rsp)
   14000108a:	4c 8b ce             	mov    %rsi,%r9
   14000108d:	4c 8b c3             	mov    %rbx,%r8
   140001090:	48 c7 44 24 20 00 00 	movq   $0x0,0x20(%rsp)
   140001097:	00 00 
   140001099:	48 8b d7             	mov    %rdi,%rdx
   14000109c:	48 8b 08             	mov    (%rax),%rcx
   14000109f:	48 83 c9 02          	or     $0x2,%rcx
   1400010a3:	e8 84 18 01 00       	callq  0x14001292c
   1400010a8:	85 c0                	test   %eax,%eax
   1400010aa:	b9 ff ff ff ff       	mov    $0xffffffff,%ecx
   1400010af:	0f 48 c1             	cmovs  %ecx,%eax
   1400010b2:	48 83 c4 38          	add    $0x38,%rsp
   1400010b6:	5f                   	pop    %rdi
   1400010b7:	5e                   	pop    %rsi
   1400010b8:	5d                   	pop    %rbp
   1400010b9:	5b                   	pop    %rbx
   1400010ba:	c3                   	retq   
   1400010bb:	cc                   	int3   
   1400010bc:	cc                   	int3   
   1400010bd:	cc                   	int3   
   1400010be:	cc                   	int3   
   1400010bf:	cc                   	int3   
   1400010c0:	48 89 51 18          	mov    %rdx,0x18(%rcx)
   1400010c4:	48 8d 42 08          	lea    0x8(%rdx),%rax
   1400010c8:	48 89 41 20          	mov    %rax,0x20(%rcx)
   1400010cc:	4d 8b d0             	mov    %r8,%r10
   1400010cf:	4c 8b c9             	mov    %rcx,%r9
   1400010d2:	49 83 f8 08          	cmp    $0x8,%r8
   1400010d6:	72 4b                	jb     0x140001123
   1400010d8:	48 8d 42 f8          	lea    -0x8(%rdx),%rax
   1400010dc:	49 03 c0             	add    %r8,%rax
   1400010df:	48 89 41 10          	mov    %rax,0x10(%rcx)
   1400010e3:	48 8b 00             	mov    (%rax),%rax
   1400010e6:	48 89 01             	mov    %rax,(%rcx)
   1400010e9:	46 0f b6 5c 02 ff    	movzbl -0x1(%rdx,%r8,1),%r11d
   1400010ef:	33 d2                	xor    %edx,%edx
   1400010f1:	45 84 db             	test   %r11b,%r11b
   1400010f4:	74 15                	je     0x14000110b
   1400010f6:	41 0f b6 c3          	movzbl %r11b,%eax
   1400010fa:	41 b8 08 00 00 00    	mov    $0x8,%r8d
   140001100:	0f bd c8             	bsr    %eax,%ecx
   140001103:	0f 45 d1             	cmovne %ecx,%edx
   140001106:	44 2b c2             	sub    %edx,%r8d
   140001109:	eb 03                	jmp    0x14000110e
   14000110b:	44 8b c2             	mov    %edx,%r8d
   14000110e:	45 89 41 08          	mov    %r8d,0x8(%r9)
   140001112:	45 84 db             	test   %r11b,%r11b
   140001115:	0f 85 c6 00 00 00    	jne    0x1400011e1
   14000111b:	48 c7 c0 ff ff ff ff 	mov    $0xffffffffffffffff,%rax
   140001122:	c3                   	retq   
   140001123:	48 89 51 10          	mov    %rdx,0x10(%rcx)
   140001127:	49 8d 40 fe          	lea    -0x2(%r8),%rax
   14000112b:	0f b6 0a             	movzbl (%rdx),%ecx
   14000112e:	49 89 09             	mov    %rcx,(%r9)
   140001131:	48 83 f8 05          	cmp    $0x5,%rax
   140001135:	77 68                	ja     0x14000119f
   140001137:	4c 8d 05 c2 ee ff ff 	lea    -0x113e(%rip),%r8        # 0x140000000
   14000113e:	41 8b 84 80 e8 11 00 	mov    0x11e8(%r8,%rax,4),%eax
   140001145:	00 
   140001146:	49 03 c0             	add    %r8,%rax
   140001149:	ff e0                	jmpq   *%rax
   14000114b:	0f b6 42 06          	movzbl 0x6(%rdx),%eax
   14000114f:	48 c1 e0 30          	shl    $0x30,%rax
   140001153:	48 03 c8             	add    %rax,%rcx
   140001156:	49 89 09             	mov    %rcx,(%r9)
   140001159:	0f b6 42 05          	movzbl 0x5(%rdx),%eax
   14000115d:	48 c1 e0 28          	shl    $0x28,%rax
   140001161:	48 03 c8             	add    %rax,%rcx
   140001164:	49 89 09             	mov    %rcx,(%r9)
   140001167:	0f b6 42 04          	movzbl 0x4(%rdx),%eax
   14000116b:	48 c1 e0 20          	shl    $0x20,%rax
   14000116f:	48 03 c8             	add    %rax,%rcx
   140001172:	49 89 09             	mov    %rcx,(%r9)
   140001175:	0f b6 42 03          	movzbl 0x3(%rdx),%eax
   140001179:	48 c1 e0 18          	shl    $0x18,%rax
   14000117d:	48 03 c8             	add    %rax,%rcx
   140001180:	49 89 09             	mov    %rcx,(%r9)
   140001183:	0f b6 42 02          	movzbl 0x2(%rdx),%eax
   140001187:	48 c1 e0 10          	shl    $0x10,%rax
   14000118b:	48 03 c8             	add    %rax,%rcx
   14000118e:	49 89 09             	mov    %rcx,(%r9)
   140001191:	0f b6 42 01          	movzbl 0x1(%rdx),%eax
   140001195:	48 c1 e0 08          	shl    $0x8,%rax
   140001199:	48 03 c1             	add    %rcx,%rax
   14000119c:	49 89 01             	mov    %rax,(%r9)
   14000119f:	46 0f b6 5c 12 ff    	movzbl -0x1(%rdx,%r10,1),%r11d
   1400011a5:	41 b8 08 00 00 00    	mov    $0x8,%r8d
   1400011ab:	33 d2                	xor    %edx,%edx
   1400011ad:	45 84 db             	test   %r11b,%r11b
   1400011b0:	74 11                	je     0x1400011c3
   1400011b2:	41 0f b6 c3          	movzbl %r11b,%eax
   1400011b6:	0f bd c8             	bsr    %eax,%ecx
   1400011b9:	41 8b c0             	mov    %r8d,%eax
   1400011bc:	0f 45 d1             	cmovne %ecx,%edx
   1400011bf:	2b c2                	sub    %edx,%eax
   1400011c1:	eb 02                	jmp    0x1400011c5
   1400011c3:	8b c2                	mov    %edx,%eax
   1400011c5:	41 89 41 08          	mov    %eax,0x8(%r9)
   1400011c9:	45 84 db             	test   %r11b,%r11b
   1400011cc:	75 08                	jne    0x1400011d6
   1400011ce:	48 c7 c0 ec ff ff ff 	mov    $0xffffffffffffffec,%rax
   1400011d5:	c3                   	retq   
   1400011d6:	45 2b c2             	sub    %r10d,%r8d
   1400011d9:	42 8d 04 c0          	lea    (%rax,%r8,8),%eax
   1400011dd:	41 89 41 08          	mov    %eax,0x8(%r9)
   1400011e1:	49 8b c2             	mov    %r10,%rax
   1400011e4:	c3                   	retq   
   1400011e5:	0f 1f 00             	nopl   (%rax)
   1400011e8:	91                   	xchg   %eax,%ecx
   1400011e9:	11 00                	adc    %eax,(%rax)
   1400011eb:	00 83 11 00 00 75    	add    %al,0x75000011(%rbx)
   1400011f1:	11 00                	adc    %eax,(%rax)
   1400011f3:	00 67 11             	add    %ah,0x11(%rdi)
   1400011f6:	00 00                	add    %al,(%rax)
   1400011f8:	59                   	pop    %rcx
   1400011f9:	11 00                	adc    %eax,(%rax)
   1400011fb:	00 4b 11             	add    %cl,0x11(%rbx)
   1400011fe:	00 00                	add    %al,(%rax)
   140001200:	44 8b 49 08          	mov    0x8(%rcx),%r9d
   140001204:	4c 8b c1             	mov    %rcx,%r8
   140001207:	41 83 f9 40          	cmp    $0x40,%r9d
   14000120b:	76 06                	jbe    0x140001213
   14000120d:	b8 03 00 00 00       	mov    $0x3,%eax
   140001212:	c3                   	retq   
   140001213:	48 8b 51 10          	mov    0x10(%rcx),%rdx
   140001217:	48 3b 51 20          	cmp    0x20(%rcx),%rdx
   14000121b:	72 1f                	jb     0x14000123c
   14000121d:	49 8b c1             	mov    %r9,%rax
   140001220:	41 83 e1 07          	and    $0x7,%r9d
   140001224:	48 c1 e8 03          	shr    $0x3,%rax
   140001228:	48 2b d0             	sub    %rax,%rdx
   14000122b:	44 89 49 08          	mov    %r9d,0x8(%rcx)
   14000122f:	48 89 51 10          	mov    %rdx,0x10(%rcx)
   140001233:	48 8b 02             	mov    (%rdx),%rax
   140001236:	48 89 01             	mov    %rax,(%rcx)
   140001239:	33 c0                	xor    %eax,%eax
   14000123b:	c3                   	retq   
   14000123c:	48 8b 49 18          	mov    0x18(%rcx),%rcx
   140001240:	48 3b d1             	cmp    %rcx,%rdx
   140001243:	75 0a                	jne    0x14000124f
   140001245:	41 83 f9 40          	cmp    $0x40,%r9d
   140001249:	1b c0                	sbb    %eax,%eax
   14000124b:	83 c0 02             	add    $0x2,%eax
   14000124e:	c3                   	retq   
   14000124f:	45 8b d1             	mov    %r9d,%r10d
   140001252:	4c 8b da             	mov    %rdx,%r11
   140001255:	41 c1 ea 03          	shr    $0x3,%r10d
   140001259:	41 8b c2             	mov    %r10d,%eax
   14000125c:	4c 2b d8             	sub    %rax,%r11
   14000125f:	4c 3b d9             	cmp    %rcx,%r11
   140001262:	73 06                	jae    0x14000126a
   140001264:	44 8b d2             	mov    %edx,%r10d
   140001267:	44 2b d1             	sub    %ecx,%r10d
   14000126a:	33 c0                	xor    %eax,%eax
   14000126c:	4c 3b d9             	cmp    %rcx,%r11
   14000126f:	41 8b ca             	mov    %r10d,%ecx
   140001272:	0f 92 c0             	setb   %al
   140001275:	48 2b d1             	sub    %rcx,%rdx
   140001278:	42 8d 0c d5 00 00 00 	lea    0x0(,%r10,8),%ecx
   14000127f:	00 
   140001280:	49 89 50 10          	mov    %rdx,0x10(%r8)
   140001284:	44 2b c9             	sub    %ecx,%r9d
   140001287:	45 89 48 08          	mov    %r9d,0x8(%r8)
   14000128b:	48 8b 0a             	mov    (%rdx),%rcx
   14000128e:	49 89 08             	mov    %rcx,(%r8)
   140001291:	c3                   	retq   
   140001292:	cc                   	int3   
   140001293:	cc                   	int3   
   140001294:	cc                   	int3   
   140001295:	cc                   	int3   
   140001296:	cc                   	int3   
   140001297:	cc                   	int3   
   140001298:	cc                   	int3   
   140001299:	cc                   	int3   
   14000129a:	cc                   	int3   
   14000129b:	cc                   	int3   
   14000129c:	cc                   	int3   
   14000129d:	cc                   	int3   
   14000129e:	cc                   	int3   
   14000129f:	cc                   	int3   
   1400012a0:	48 89 6c 24 10       	mov    %rbp,0x10(%rsp)
   1400012a5:	44 89 4c 24 20       	mov    %r9d,0x20(%rsp)
   1400012aa:	56                   	push   %rsi
   1400012ab:	57                   	push   %rdi
   1400012ac:	41 54                	push   %r12
   1400012ae:	41 55                	push   %r13
   1400012b0:	41 56                	push   %r14
   1400012b2:	41 57                	push   %r15
   1400012b4:	4c 8b 64 24 58       	mov    0x58(%rsp),%r12
   1400012b9:	4c 8b f1             	mov    %rcx,%r14
   1400012bc:	41 8b c9             	mov    %r9d,%ecx
   1400012bf:	41 8b c0             	mov    %r8d,%eax
   1400012c2:	48 ff c0             	inc    %rax
   1400012c5:	41 8b f8             	mov    %r8d,%edi
   1400012c8:	45 8b e9             	mov    %r9d,%r13d
   1400012cb:	4c 8b da             	mov    %rdx,%r11
   1400012ce:	41 b9 01 00 00 00    	mov    $0x1,%r9d
   1400012d4:	45 8b f9             	mov    %r9d,%r15d
   1400012d7:	4d 8d 14 44          	lea    (%r12,%rax,2),%r10
   1400012db:	41 d3 e7             	shl    %cl,%r15d
   1400012de:	8d 6f 01             	lea    0x1(%rdi),%ebp
   1400012e1:	41 8b c1             	mov    %r9d,%eax
   1400012e4:	48 d3 e0             	shl    %cl,%rax
   1400012e7:	8b f5                	mov    %ebp,%esi
   1400012e9:	45 8d 47 ff          	lea    -0x1(%r15),%r8d
   1400012ed:	41 8b d0             	mov    %r8d,%edx
   1400012f0:	48 8d 04 68          	lea    (%rax,%rbp,2),%rax
   1400012f4:	48 83 c0 08          	add    $0x8,%rax
   1400012f8:	48 3b 44 24 60       	cmp    0x60(%rsp),%rax
   1400012fd:	0f 87 29 02 00 00    	ja     0x14000152c
   140001303:	81 ff ff 00 00 00    	cmp    $0xff,%edi
   140001309:	0f 87 1d 02 00 00    	ja     0x14000152c
   14000130f:	83 f9 0c             	cmp    $0xc,%ecx
   140001312:	76 14                	jbe    0x140001328
   140001314:	49 8d 41 d3          	lea    -0x2d(%r9),%rax
   140001318:	48 8b 6c 24 40       	mov    0x40(%rsp),%rbp
   14000131d:	41 5f                	pop    %r15
   14000131f:	41 5e                	pop    %r14
   140001321:	41 5d                	pop    %r13
   140001323:	41 5c                	pop    %r12
   140001325:	5f                   	pop    %rdi
   140001326:	5e                   	pop    %rsi
   140001327:	c3                   	retq   
   140001328:	41 8d 4d ff          	lea    -0x1(%r13),%ecx
   14000132c:	48 89 5c 24 38       	mov    %rbx,0x38(%rsp)
   140001331:	33 db                	xor    %ebx,%ebx
   140001333:	66 44 89 4c 24 4a    	mov    %r9w,0x4a(%rsp)
   140001339:	66 41 d3 e1          	shl    %cl,%r9w
   14000133d:	8b fb                	mov    %ebx,%edi
   14000133f:	66 44 89 6c 24 48    	mov    %r13w,0x48(%rsp)
   140001345:	85 ed                	test   %ebp,%ebp
   140001347:	74 54                	je     0x14000139d
   140001349:	49 8b db             	mov    %r11,%rbx
   14000134c:	49 8b cc             	mov    %r12,%rcx
   14000134f:	49 2b dc             	sub    %r12,%rbx
   140001352:	41 b8 01 00 00 00    	mov    $0x1,%r8d
   140001358:	45 33 ed             	xor    %r13d,%r13d
   14000135b:	0f 1f 44 00 00       	nopl   0x0(%rax,%rax,1)
   140001360:	0f b7 04 0b          	movzwl (%rbx,%rcx,1),%eax
   140001364:	66 83 f8 ff          	cmp    $0xffff,%ax
   140001368:	75 0f                	jne    0x140001379
   14000136a:	8b c2                	mov    %edx,%eax
   14000136c:	ff ca                	dec    %edx
   14000136e:	41 88 7c 86 06       	mov    %dil,0x6(%r14,%rax,4)
   140001373:	41 0f b7 c0          	movzwl %r8w,%eax
   140001377:	eb 0c                	jmp    0x140001385
   140001379:	66 41 3b c1          	cmp    %r9w,%ax
   14000137d:	7c 06                	jl     0x140001385
   14000137f:	66 44 89 6c 24 4a    	mov    %r13w,0x4a(%rsp)
   140001385:	66 89 01             	mov    %ax,(%rcx)
   140001388:	ff c7                	inc    %edi
   14000138a:	48 83 c1 02          	add    $0x2,%rcx
   14000138e:	3b fd                	cmp    %ebp,%edi
   140001390:	72 ce                	jb     0x140001360
   140001392:	44 8b 6c 24 50       	mov    0x50(%rsp),%r13d
   140001397:	45 8d 47 ff          	lea    -0x1(%r15),%r8d
   14000139b:	33 db                	xor    %ebx,%ebx
   14000139d:	8b 44 24 48          	mov    0x48(%rsp),%eax
   1400013a1:	41 8b cf             	mov    %r15d,%ecx
   1400013a4:	c1 e9 03             	shr    $0x3,%ecx
   1400013a7:	41 89 06             	mov    %eax,(%r14)
   1400013aa:	41 3b d0             	cmp    %r8d,%edx
   1400013ad:	0f 85 13 01 00 00    	jne    0x1400014c6
   1400013b3:	33 c0                	xor    %eax,%eax
   1400013b5:	45 8b c8             	mov    %r8d,%r9d
   1400013b8:	41 8b df             	mov    %r15d,%ebx
   1400013bb:	44 8b c0             	mov    %eax,%r8d
   1400013be:	d1 eb                	shr    %ebx
   1400013c0:	83 c3 03             	add    $0x3,%ebx
   1400013c3:	03 d9                	add    %ecx,%ebx
   1400013c5:	85 ed                	test   %ebp,%ebp
   1400013c7:	74 4a                	je     0x140001413
   1400013c9:	48 bd 01 01 01 01 01 	movabs $0x101010101010101,%rbp
   1400013d0:	01 01 01 
   1400013d3:	0f 1f 40 00          	nopl   0x0(%rax)
   1400013d7:	66 0f 1f 84 00 00 00 	nopw   0x0(%rax,%rax,1)
   1400013de:	00 00 
   1400013e0:	49 0f bf 13          	movswq (%r11),%rdx
   1400013e4:	4b 89 04 10          	mov    %rax,(%r8,%r10,1)
   1400013e8:	48 83 fa 08          	cmp    $0x8,%rdx
   1400013ec:	7e 15                	jle    0x140001403
   1400013ee:	49 8d 7a 08          	lea    0x8(%r10),%rdi
   1400013f2:	49 03 f8             	add    %r8,%rdi
   1400013f5:	48 8d 4a f7          	lea    -0x9(%rdx),%rcx
   1400013f9:	48 c1 e9 03          	shr    $0x3,%rcx
   1400013fd:	48 ff c1             	inc    %rcx
   140001400:	f3 48 ab             	rep stos %rax,%es:(%rdi)
   140001403:	4c 03 c2             	add    %rdx,%r8
   140001406:	49 83 c3 02          	add    $0x2,%r11
   14000140a:	48 03 c5             	add    %rbp,%rax
   14000140d:	48 83 ee 01          	sub    $0x1,%rsi
   140001411:	75 cd                	jne    0x1400013e0
   140001413:	33 c0                	xor    %eax,%eax
   140001415:	41 8b ff             	mov    %r15d,%edi
   140001418:	8b d0                	mov    %eax,%edx
   14000141a:	45 85 ff             	test   %r15d,%r15d
   14000141d:	74 42                	je     0x140001461
   14000141f:	48 ff cf             	dec    %rdi
   140001422:	48 d1 ef             	shr    %rdi
   140001425:	48 ff c7             	inc    %rdi
   140001428:	0f 1f 84 00 00 00 00 	nopl   0x0(%rax,%rax,1)
   14000142f:	00 
   140001430:	41 0f b6 02          	movzbl (%r10),%eax
   140001434:	4d 8d 52 02          	lea    0x2(%r10),%r10
   140001438:	48 8b ca             	mov    %rdx,%rcx
   14000143b:	49 23 c9             	and    %r9,%rcx
   14000143e:	41 88 44 8e 06       	mov    %al,0x6(%r14,%rcx,4)
   140001443:	48 8d 0c 1a          	lea    (%rdx,%rbx,1),%rcx
   140001447:	41 0f b6 42 ff       	movzbl -0x1(%r10),%eax
   14000144c:	48 8d 14 5a          	lea    (%rdx,%rbx,2),%rdx
   140001450:	49 23 c9             	and    %r9,%rcx
   140001453:	49 23 d1             	and    %r9,%rdx
   140001456:	41 88 44 8e 06       	mov    %al,0x6(%r14,%rcx,4)
   14000145b:	48 83 ef 01          	sub    $0x1,%rdi
   14000145f:	75 cf                	jne    0x140001430
   140001461:	33 db                	xor    %ebx,%ebx
   140001463:	45 85 ff             	test   %r15d,%r15d
   140001466:	74 47                	je     0x1400014af
   140001468:	4d 8d 46 07          	lea    0x7(%r14),%r8
   14000146c:	45 8b cf             	mov    %r15d,%r9d
   14000146f:	90                   	nop
   140001470:	41 0f b6 40 ff       	movzbl -0x1(%r8),%eax
   140001475:	4d 8d 40 04          	lea    0x4(%r8),%r8
   140001479:	41 0f b7 3c 44       	movzwl (%r12,%rax,2),%edi
   14000147e:	49 8d 0c 44          	lea    (%r12,%rax,2),%rcx
   140001482:	8b d3                	mov    %ebx,%edx
   140001484:	8d 47 01             	lea    0x1(%rdi),%eax
   140001487:	66 89 01             	mov    %ax,(%rcx)
   14000148a:	41 0f b6 cd          	movzbl %r13b,%ecx
   14000148e:	0f bd c7             	bsr    %edi,%eax
   140001491:	0f b6 c0             	movzbl %al,%eax
   140001494:	0f 45 d0             	cmovne %eax,%edx
   140001497:	2a ca                	sub    %dl,%cl
   140001499:	66 d3 e7             	shl    %cl,%di
   14000149c:	66 41 2b ff          	sub    %r15w,%di
   1400014a0:	41 88 48 fc          	mov    %cl,-0x4(%r8)
   1400014a4:	66 41 89 78 f9       	mov    %di,-0x7(%r8)
   1400014a9:	49 83 e9 01          	sub    $0x1,%r9
   1400014ad:	75 c1                	jne    0x140001470
   1400014af:	33 c0                	xor    %eax,%eax
   1400014b1:	48 8b 5c 24 38       	mov    0x38(%rsp),%rbx
   1400014b6:	48 8b 6c 24 40       	mov    0x40(%rsp),%rbp
   1400014bb:	41 5f                	pop    %r15
   1400014bd:	41 5e                	pop    %r14
   1400014bf:	41 5d                	pop    %r13
   1400014c1:	41 5c                	pop    %r12
   1400014c3:	5f                   	pop    %rdi
   1400014c4:	5e                   	pop    %rsi
   1400014c5:	c3                   	retq   
   1400014c6:	41 8b ff             	mov    %r15d,%edi
   1400014c9:	8b c3                	mov    %ebx,%eax
   1400014cb:	d1 ef                	shr    %edi
   1400014cd:	44 8b d3             	mov    %ebx,%r10d
   1400014d0:	83 c7 03             	add    $0x3,%edi
   1400014d3:	03 f9                	add    %ecx,%edi
   1400014d5:	85 ed                	test   %ebp,%ebp
   1400014d7:	74 8a                	je     0x140001463
   1400014d9:	0f 1f 80 00 00 00 00 	nopl   0x0(%rax)
   1400014e0:	41 0f bf 0b          	movswl (%r11),%ecx
   1400014e4:	85 c9                	test   %ecx,%ecx
   1400014e6:	7e 27                	jle    0x14000150f
   1400014e8:	44 8b c9             	mov    %ecx,%r9d
   1400014eb:	0f 1f 44 00 00       	nopl   0x0(%rax,%rax,1)
   1400014f0:	8b c8                	mov    %eax,%ecx
   1400014f2:	03 c7                	add    %edi,%eax
   1400014f4:	41 23 c0             	and    %r8d,%eax
   1400014f7:	45 88 54 8e 06       	mov    %r10b,0x6(%r14,%rcx,4)
   1400014fc:	3b c2                	cmp    %edx,%eax
   1400014fe:	76 09                	jbe    0x140001509
   140001500:	03 c7                	add    %edi,%eax
   140001502:	41 23 c0             	and    %r8d,%eax
   140001505:	3b c2                	cmp    %edx,%eax
   140001507:	77 f7                	ja     0x140001500
   140001509:	49 83 e9 01          	sub    $0x1,%r9
   14000150d:	75 e1                	jne    0x1400014f0
   14000150f:	41 ff c2             	inc    %r10d
   140001512:	49 83 c3 02          	add    $0x2,%r11
   140001516:	44 3b d5             	cmp    %ebp,%r10d
   140001519:	72 c5                	jb     0x1400014e0
   14000151b:	85 c0                	test   %eax,%eax
   14000151d:	0f 84 40 ff ff ff    	je     0x140001463
   140001523:	48 c7 c0 ff ff ff ff 	mov    $0xffffffffffffffff,%rax
   14000152a:	eb 85                	jmp    0x1400014b1
   14000152c:	48 8b 6c 24 40       	mov    0x40(%rsp),%rbp
   140001531:	48 c7 c0 d2 ff ff ff 	mov    $0xffffffffffffffd2,%rax
   140001538:	41 5f                	pop    %r15
   14000153a:	41 5e                	pop    %r14
   14000153c:	41 5d                	pop    %r13
   14000153e:	41 5c                	pop    %r12
   140001540:	5f                   	pop    %rdi
   140001541:	5e                   	pop    %rsi
   140001542:	c3                   	retq   
   140001543:	cc                   	int3   
   140001544:	cc                   	int3   
   140001545:	cc                   	int3   
   140001546:	cc                   	int3   
   140001547:	cc                   	int3   
   140001548:	cc                   	int3   
   140001549:	cc                   	int3   
   14000154a:	cc                   	int3   
   14000154b:	cc                   	int3   
   14000154c:	cc                   	int3   
   14000154d:	cc                   	int3   
   14000154e:	cc                   	int3   
   14000154f:	cc                   	int3   
   140001550:	40 55                	rex push %rbp
   140001552:	53                   	push   %rbx
   140001553:	56                   	push   %rsi
   140001554:	57                   	push   %rdi
   140001555:	41 57                	push   %r15
   140001557:	48 8d ac 24 60 fe ff 	lea    -0x1a0(%rsp),%rbp
   14000155e:	ff 
   14000155f:	48 81 ec a0 02 00 00 	sub    $0x2a0,%rsp
   140001566:	48 8b 05 9b aa 02 00 	mov    0x2aa9b(%rip),%rax        # 0x14002c008
   14000156d:	48 33 c4             	xor    %rsp,%rax
   140001570:	48 89 85 80 01 00 00 	mov    %rax,0x180(%rbp)
   140001577:	48 8b 9d f8 01 00 00 	mov    0x1f8(%rbp),%rbx
   14000157e:	48 8d 54 24 68       	lea    0x68(%rsp),%rdx
   140001583:	49 8b f9             	mov    %r9,%rdi
   140001586:	4c 89 4c 24 20       	mov    %r9,0x20(%rsp)
   14000158b:	4d 8b c8             	mov    %r8,%r9
   14000158e:	48 89 4c 24 60       	mov    %rcx,0x60(%rsp)
   140001593:	49 8b f0             	mov    %r8,%rsi
   140001596:	48 89 5c 24 30       	mov    %rbx,0x30(%rsp)
   14000159b:	4c 8b f9             	mov    %rcx,%r15
   14000159e:	c7 44 24 68 ff 00 00 	movl   $0xff,0x68(%rsp)
   1400015a5:	00 
   1400015a6:	4c 8d 44 24 6c       	lea    0x6c(%rsp),%r8
   1400015ab:	48 8d 4d 80          	lea    -0x80(%rbp),%rcx
   1400015af:	e8 2c 0d 00 00       	callq  0x1400022e0
   1400015b4:	48 83 f8 88          	cmp    $0xffffffffffffff88,%rax
   1400015b8:	0f 87 ef 04 00 00    	ja     0x140001aad
   1400015be:	44 8b 4c 24 6c       	mov    0x6c(%rsp),%r9d
   1400015c3:	41 83 f9 06          	cmp    $0x6,%r9d
   1400015c7:	76 0c                	jbe    0x1400015d5
   1400015c9:	48 c7 c0 d4 ff ff ff 	mov    $0xffffffffffffffd4,%rax
   1400015d0:	e9 d8 04 00 00       	jmpq   0x140001aad
   1400015d5:	44 8b 54 24 68       	mov    0x68(%rsp),%r10d
   1400015da:	48 2b f8             	sub    %rax,%rdi
   1400015dd:	41 8b c9             	mov    %r9d,%ecx
   1400015e0:	4c 89 b4 24 90 02 00 	mov    %r14,0x290(%rsp)
   1400015e7:	00 
   1400015e8:	4c 8d 34 30          	lea    (%rax,%rsi,1),%r14
   1400015ec:	b8 01 00 00 00       	mov    $0x1,%eax
   1400015f1:	d3 e0                	shl    %cl,%eax
   1400015f3:	ff c0                	inc    %eax
   1400015f5:	41 8d 52 01          	lea    0x1(%r10),%edx
   1400015f9:	4c 63 c0             	movslq %eax,%r8
   1400015fc:	b8 01 00 00 00       	mov    $0x1,%eax
   140001601:	48 d3 e0             	shl    %cl,%rax
   140001604:	48 8d 0c 55 0b 00 00 	lea    0xb(,%rdx,2),%rcx
   14000160b:	00 
   14000160c:	48 03 c8             	add    %rax,%rcx
   14000160f:	ba 64 01 00 00       	mov    $0x164,%edx
   140001614:	48 c1 e9 02          	shr    $0x2,%rcx
   140001618:	49 03 c8             	add    %r8,%rcx
   14000161b:	48 c1 e1 02          	shl    $0x2,%rcx
   14000161f:	48 3b ca             	cmp    %rdx,%rcx
   140001622:	76 0c                	jbe    0x140001630
   140001624:	48 c7 c0 d4 ff ff ff 	mov    $0xffffffffffffffd4,%rax
   14000162b:	e9 75 04 00 00       	jmpq   0x140001aa5
   140001630:	4a 8d 04 85 00 00 00 	lea    0x0(,%r8,4),%rax
   140001637:	00 
   140001638:	45 8b c2             	mov    %r10d,%r8d
   14000163b:	48 2b d0             	sub    %rax,%rdx
   14000163e:	48 8d 0c 18          	lea    (%rax,%rbx,1),%rcx
   140001642:	48 89 54 24 28       	mov    %rdx,0x28(%rsp)
   140001647:	48 8d 55 80          	lea    -0x80(%rbp),%rdx
   14000164b:	48 89 4c 24 20       	mov    %rcx,0x20(%rsp)
   140001650:	48 8b cb             	mov    %rbx,%rcx
   140001653:	e8 48 fc ff ff       	callq  0x1400012a0
   140001658:	48 83 f8 88          	cmp    $0xffffffffffffff88,%rax
   14000165c:	0f 87 43 04 00 00    	ja     0x140001aa5
   140001662:	66 83 7b 02 00       	cmpw   $0x0,0x2(%rbx)
   140001667:	4c 89 a4 24 d8 02 00 	mov    %r12,0x2d8(%rsp)
   14000166e:	00 
   14000166f:	4c 89 ac 24 98 02 00 	mov    %r13,0x298(%rsp)
   140001676:	00 
   140001677:	0f 84 78 04 00 00    	je     0x140001af5
   14000167d:	49 8b df             	mov    %r15,%rbx
   140001680:	48 83 ff 01          	cmp    $0x1,%rdi
   140001684:	0f 82 74 04 00 00    	jb     0x140001afe
   14000168a:	4c 8b c7             	mov    %rdi,%r8
   14000168d:	48 8d 4c 24 38       	lea    0x38(%rsp),%rcx
   140001692:	49 8b d6             	mov    %r14,%rdx
   140001695:	e8 26 fa ff ff       	callq  0x1400010c0
   14000169a:	48 83 f8 88          	cmp    $0xffffffffffffff88,%rax
   14000169e:	0f 87 f1 03 00 00    	ja     0x140001a95
   1400016a4:	4c 8b 5c 24 30       	mov    0x30(%rsp),%r11
   1400016a9:	48 8d 0d 10 71 02 00 	lea    0x27110(%rip),%rcx        # 0x1400287c0
   1400016b0:	8b 54 24 40          	mov    0x40(%rsp),%edx
   1400016b4:	48 8b 74 24 38       	mov    0x38(%rsp),%rsi
   1400016b9:	4c 8b 74 24 50       	mov    0x50(%rsp),%r14
   1400016be:	4c 8b e6             	mov    %rsi,%r12
   1400016c1:	45 0f b7 3b          	movzwl (%r11),%r15d
   1400016c5:	45 8b ce             	mov    %r14d,%r9d
   1400016c8:	4c 8b 6c 24 58       	mov    0x58(%rsp),%r13
   1400016cd:	41 03 d7             	add    %r15d,%edx
   1400016d0:	48 8b 7c 24 48       	mov    0x48(%rsp),%rdi
   1400016d5:	8b c2                	mov    %edx,%eax
   1400016d7:	46 8b 04 b9          	mov    (%rcx,%r15,4),%r8d
   1400016db:	8b ca                	mov    %edx,%ecx
   1400016dd:	f7 d9                	neg    %ecx
   1400016df:	4c 89 44 24 70       	mov    %r8,0x70(%rsp)
   1400016e4:	83 e1 3f             	and    $0x3f,%ecx
   1400016e7:	49 d3 ec             	shr    %cl,%r12
   1400016ea:	4d 23 e0             	and    %r8,%r12
   1400016ed:	83 fa 40             	cmp    $0x40,%edx
   1400016f0:	77 54                	ja     0x140001746
   1400016f2:	49 3b fd             	cmp    %r13,%rdi
   1400016f5:	72 0e                	jb     0x140001705
   1400016f7:	8b c2                	mov    %edx,%eax
   1400016f9:	48 c1 e8 03          	shr    $0x3,%rax
   1400016fd:	48 2b f8             	sub    %rax,%rdi
   140001700:	83 e2 07             	and    $0x7,%edx
   140001703:	eb 37                	jmp    0x14000173c
   140001705:	49 3b fe             	cmp    %r14,%rdi
   140001708:	74 3c                	je     0x140001746
   14000170a:	44 8b c2             	mov    %edx,%r8d
   14000170d:	48 8b cf             	mov    %rdi,%rcx
   140001710:	41 c1 e8 03          	shr    $0x3,%r8d
   140001714:	41 8b c0             	mov    %r8d,%eax
   140001717:	48 2b c8             	sub    %rax,%rcx
   14000171a:	49 3b ce             	cmp    %r14,%rcx
   14000171d:	73 08                	jae    0x140001727
   14000171f:	44 8b 44 24 48       	mov    0x48(%rsp),%r8d
   140001724:	45 2b c1             	sub    %r9d,%r8d
   140001727:	41 8b c0             	mov    %r8d,%eax
   14000172a:	48 2b f8             	sub    %rax,%rdi
   14000172d:	42 8d 04 c5 00 00 00 	lea    0x0(,%r8,8),%eax
   140001734:	00 
   140001735:	4c 8b 44 24 70       	mov    0x70(%rsp),%r8
   14000173a:	2b d0                	sub    %eax,%edx
   14000173c:	48 8b 37             	mov    (%rdi),%rsi
   14000173f:	8b c2                	mov    %edx,%eax
   140001741:	48 89 7c 24 48       	mov    %rdi,0x48(%rsp)
   140001746:	41 8d 0c 07          	lea    (%r15,%rax,1),%ecx
   14000174a:	45 8d 14 17          	lea    (%r15,%rdx,1),%r10d
   14000174e:	f7 d9                	neg    %ecx
   140001750:	83 e1 3f             	and    $0x3f,%ecx
   140001753:	4c 8b fe             	mov    %rsi,%r15
   140001756:	49 d3 ef             	shr    %cl,%r15
   140001759:	4d 23 f8             	and    %r8,%r15
   14000175c:	41 83 fa 40          	cmp    $0x40,%r10d
   140001760:	77 54                	ja     0x1400017b6
   140001762:	49 3b fd             	cmp    %r13,%rdi
   140001765:	72 10                	jb     0x140001777
   140001767:	41 8b c2             	mov    %r10d,%eax
   14000176a:	48 c1 e8 03          	shr    $0x3,%rax
   14000176e:	48 2b f8             	sub    %rax,%rdi
   140001771:	41 83 e2 07          	and    $0x7,%r10d
   140001775:	eb 2e                	jmp    0x1400017a5
   140001777:	49 3b fe             	cmp    %r14,%rdi
   14000177a:	74 34                	je     0x1400017b0
   14000177c:	41 8b d2             	mov    %r10d,%edx
   14000177f:	48 8b cf             	mov    %rdi,%rcx
   140001782:	c1 ea 03             	shr    $0x3,%edx
   140001785:	8b c2                	mov    %edx,%eax
   140001787:	48 2b c8             	sub    %rax,%rcx
   14000178a:	49 3b ce             	cmp    %r14,%rcx
   14000178d:	73 07                	jae    0x140001796
   14000178f:	8b 54 24 48          	mov    0x48(%rsp),%edx
   140001793:	41 2b d1             	sub    %r9d,%edx
   140001796:	8b c2                	mov    %edx,%eax
   140001798:	48 2b f8             	sub    %rax,%rdi
   14000179b:	8d 04 d5 00 00 00 00 	lea    0x0(,%rdx,8),%eax
   1400017a2:	44 2b d0             	sub    %eax,%r10d
   1400017a5:	48 8b 37             	mov    (%rdi),%rsi
   1400017a8:	48 89 7c 24 48       	mov    %rdi,0x48(%rsp)
   1400017ad:	0f 1f 00             	nopl   (%rax)
   1400017b0:	41 83 fa 40          	cmp    $0x40,%r10d
   1400017b4:	76 08                	jbe    0x1400017be
   1400017b6:	41 b8 03 00 00 00    	mov    $0x3,%r8d
   1400017bc:	eb 60                	jmp    0x14000181e
   1400017be:	49 3b fd             	cmp    %r13,%rdi
   1400017c1:	72 13                	jb     0x1400017d6
   1400017c3:	41 8b c2             	mov    %r10d,%eax
   1400017c6:	41 83 e2 07          	and    $0x7,%r10d
   1400017ca:	48 c1 e8 03          	shr    $0x3,%rax
   1400017ce:	48 2b f8             	sub    %rax,%rdi
   1400017d1:	45 33 c0             	xor    %r8d,%r8d
   1400017d4:	eb 40                	jmp    0x140001816
   1400017d6:	49 3b fe             	cmp    %r14,%rdi
   1400017d9:	75 0d                	jne    0x1400017e8
   1400017db:	41 83 fa 40          	cmp    $0x40,%r10d
   1400017df:	45 1b c0             	sbb    %r8d,%r8d
   1400017e2:	41 83 c0 02          	add    $0x2,%r8d
   1400017e6:	eb 36                	jmp    0x14000181e
   1400017e8:	41 8b d2             	mov    %r10d,%edx
   1400017eb:	48 8b cf             	mov    %rdi,%rcx
   1400017ee:	c1 ea 03             	shr    $0x3,%edx
   1400017f1:	45 33 c0             	xor    %r8d,%r8d
   1400017f4:	8b c2                	mov    %edx,%eax
   1400017f6:	48 2b c8             	sub    %rax,%rcx
   1400017f9:	49 3b ce             	cmp    %r14,%rcx
   1400017fc:	73 0d                	jae    0x14000180b
   1400017fe:	8b 54 24 48          	mov    0x48(%rsp),%edx
   140001802:	41 b8 01 00 00 00    	mov    $0x1,%r8d
   140001808:	41 2b d1             	sub    %r9d,%edx
   14000180b:	8b c2                	mov    %edx,%eax
   14000180d:	48 2b f8             	sub    %rax,%rdi
   140001810:	6b c2 f8             	imul   $0xfffffff8,%edx,%eax
   140001813:	44 03 d0             	add    %eax,%r10d
   140001816:	48 8b 37             	mov    (%rdi),%rsi
   140001819:	48 89 7c 24 48       	mov    %rdi,0x48(%rsp)
   14000181e:	48 8b 4c 24 60       	mov    0x60(%rsp),%rcx
   140001823:	33 d2                	xor    %edx,%edx
   140001825:	48 8d 81 fc 00 00 00 	lea    0xfc(%rcx),%rax
   14000182c:	48 3b d8             	cmp    %rax,%rbx
   14000182f:	0f 92 c2             	setb   %dl
   140001832:	33 c0                	xor    %eax,%eax
   140001834:	45 85 c0             	test   %r8d,%r8d
   140001837:	0f 94 c0             	sete   %al
   14000183a:	85 d0                	test   %edx,%eax
   14000183c:	0f 84 e3 00 00 00    	je     0x140001925
   140001842:	43 8b 54 a3 04       	mov    0x4(%r11,%r12,4),%edx
   140001847:	4c 8b e6             	mov    %rsi,%r12
   14000184a:	8b c2                	mov    %edx,%eax
   14000184c:	c1 e8 18             	shr    $0x18,%eax
   14000184f:	46 8d 04 10          	lea    (%rax,%r10,1),%r8d
   140001853:	f7 d8                	neg    %eax
   140001855:	83 e0 3f             	and    $0x3f,%eax
   140001858:	41 83 e2 3f          	and    $0x3f,%r10d
   14000185c:	41 0f b6 ca          	movzbl %r10b,%ecx
   140001860:	4c 8b d6             	mov    %rsi,%r10
   140001863:	49 d3 e2             	shl    %cl,%r10
   140001866:	0f b6 c8             	movzbl %al,%ecx
   140001869:	0f b7 c2             	movzwl %dx,%eax
   14000186c:	49 d3 ea             	shr    %cl,%r10
   14000186f:	4c 03 d0             	add    %rax,%r10
   140001872:	c1 ea 10             	shr    $0x10,%edx
   140001875:	88 13                	mov    %dl,(%rbx)
   140001877:	43 8b 54 bb 04       	mov    0x4(%r11,%r15,4),%edx
   14000187c:	4c 8b de             	mov    %rsi,%r11
   14000187f:	4c 8b 7c 24 30       	mov    0x30(%rsp),%r15
   140001884:	8b c2                	mov    %edx,%eax
   140001886:	c1 e8 18             	shr    $0x18,%eax
   140001889:	45 8d 0c 00          	lea    (%r8,%rax,1),%r9d
   14000188d:	f7 d8                	neg    %eax
   14000188f:	83 e0 3f             	and    $0x3f,%eax
   140001892:	41 83 e0 3f          	and    $0x3f,%r8d
   140001896:	41 0f b6 c8          	movzbl %r8b,%ecx
   14000189a:	49 d3 e3             	shl    %cl,%r11
   14000189d:	0f b6 c8             	movzbl %al,%ecx
   1400018a0:	0f b7 c2             	movzwl %dx,%eax
   1400018a3:	49 d3 eb             	shr    %cl,%r11
   1400018a6:	4c 03 d8             	add    %rax,%r11
   1400018a9:	c1 ea 10             	shr    $0x10,%edx
   1400018ac:	88 53 01             	mov    %dl,0x1(%rbx)
   1400018af:	43 8b 54 97 04       	mov    0x4(%r15,%r10,4),%edx
   1400018b4:	8b c2                	mov    %edx,%eax
   1400018b6:	c1 e8 18             	shr    $0x18,%eax
   1400018b9:	46 8d 04 08          	lea    (%rax,%r9,1),%r8d
   1400018bd:	f7 d8                	neg    %eax
   1400018bf:	83 e0 3f             	and    $0x3f,%eax
   1400018c2:	41 83 e1 3f          	and    $0x3f,%r9d
   1400018c6:	41 0f b6 c9          	movzbl %r9b,%ecx
   1400018ca:	44 8b 4c 24 50       	mov    0x50(%rsp),%r9d
   1400018cf:	49 d3 e4             	shl    %cl,%r12
   1400018d2:	0f b6 c8             	movzbl %al,%ecx
   1400018d5:	0f b7 c2             	movzwl %dx,%eax
   1400018d8:	c1 ea 10             	shr    $0x10,%edx
   1400018db:	49 d3 ec             	shr    %cl,%r12
   1400018de:	4c 03 e0             	add    %rax,%r12
   1400018e1:	88 53 02             	mov    %dl,0x2(%rbx)
   1400018e4:	43 8b 54 9f 04       	mov    0x4(%r15,%r11,4),%edx
   1400018e9:	4c 8b fe             	mov    %rsi,%r15
   1400018ec:	4c 8b 5c 24 30       	mov    0x30(%rsp),%r11
   1400018f1:	8b c2                	mov    %edx,%eax
   1400018f3:	c1 e8 18             	shr    $0x18,%eax
   1400018f6:	46 8d 14 00          	lea    (%rax,%r8,1),%r10d
   1400018fa:	f7 d8                	neg    %eax
   1400018fc:	83 e0 3f             	and    $0x3f,%eax
   1400018ff:	41 83 e0 3f          	and    $0x3f,%r8d
   140001903:	41 0f b6 c8          	movzbl %r8b,%ecx
   140001907:	49 d3 e7             	shl    %cl,%r15
   14000190a:	0f b6 c8             	movzbl %al,%ecx
   14000190d:	49 d3 ef             	shr    %cl,%r15
   140001910:	0f b7 c2             	movzwl %dx,%eax
   140001913:	c1 ea 10             	shr    $0x10,%edx
   140001916:	4c 03 f8             	add    %rax,%r15
   140001919:	88 53 03             	mov    %dl,0x3(%rbx)
   14000191c:	48 83 c3 04          	add    $0x4,%rbx
   140001920:	e9 8b fe ff ff       	jmpq   0x1400017b0
   140001925:	48 8d 81 fd 00 00 00 	lea    0xfd(%rcx),%rax
   14000192c:	48 3b d8             	cmp    %rax,%rbx
   14000192f:	0f 87 59 01 00 00    	ja     0x140001a8e
   140001935:	66 66 66 0f 1f 84 00 	data16 data16 nopw 0x0(%rax,%rax,1)
   14000193c:	00 00 00 00 
   140001940:	47 8b 4c a3 04       	mov    0x4(%r11,%r12,4),%r9d
   140001945:	41 8b ca             	mov    %r10d,%ecx
   140001948:	83 e1 3f             	and    $0x3f,%ecx
   14000194b:	45 0f b7 e1          	movzwl %r9w,%r12d
   14000194f:	45 8b c1             	mov    %r9d,%r8d
   140001952:	48 8b d6             	mov    %rsi,%rdx
   140001955:	48 d3 e2             	shl    %cl,%rdx
   140001958:	41 c1 e8 18          	shr    $0x18,%r8d
   14000195c:	41 c1 e9 10          	shr    $0x10,%r9d
   140001960:	41 8b c8             	mov    %r8d,%ecx
   140001963:	f7 d9                	neg    %ecx
   140001965:	44 88 0b             	mov    %r9b,(%rbx)
   140001968:	83 e1 3f             	and    $0x3f,%ecx
   14000196b:	48 ff c3             	inc    %rbx
   14000196e:	48 d3 ea             	shr    %cl,%rdx
   140001971:	47 8d 1c 10          	lea    (%r8,%r10,1),%r11d
   140001975:	4c 03 e2             	add    %rdx,%r12
   140001978:	41 83 fb 40          	cmp    $0x40,%r11d
   14000197c:	0f 87 5b 01 00 00    	ja     0x140001add
   140001982:	49 3b fd             	cmp    %r13,%rdi
   140001985:	72 10                	jb     0x140001997
   140001987:	41 8b c3             	mov    %r11d,%eax
   14000198a:	48 c1 e8 03          	shr    $0x3,%rax
   14000198e:	48 2b f8             	sub    %rax,%rdi
   140001991:	41 83 e3 07          	and    $0x7,%r11d
   140001995:	eb 2f                	jmp    0x1400019c6
   140001997:	49 3b fe             	cmp    %r14,%rdi
   14000199a:	74 32                	je     0x1400019ce
   14000199c:	41 8b d3             	mov    %r11d,%edx
   14000199f:	48 8b cf             	mov    %rdi,%rcx
   1400019a2:	c1 ea 03             	shr    $0x3,%edx
   1400019a5:	8b c2                	mov    %edx,%eax
   1400019a7:	48 2b c8             	sub    %rax,%rcx
   1400019aa:	49 3b ce             	cmp    %r14,%rcx
   1400019ad:	73 08                	jae    0x1400019b7
   1400019af:	8b 54 24 48          	mov    0x48(%rsp),%edx
   1400019b3:	2b 54 24 50          	sub    0x50(%rsp),%edx
   1400019b7:	8b c2                	mov    %edx,%eax
   1400019b9:	48 2b f8             	sub    %rax,%rdi
   1400019bc:	8d 04 d5 00 00 00 00 	lea    0x0(,%rdx,8),%eax
   1400019c3:	44 2b d8             	sub    %eax,%r11d
   1400019c6:	48 8b 37             	mov    (%rdi),%rsi
   1400019c9:	48 89 7c 24 48       	mov    %rdi,0x48(%rsp)
   1400019ce:	48 8b 44 24 60       	mov    0x60(%rsp),%rax
   1400019d3:	48 05 fd 00 00 00    	add    $0xfd,%rax
   1400019d9:	48 3b d8             	cmp    %rax,%rbx
   1400019dc:	0f 87 ac 00 00 00    	ja     0x140001a8e
   1400019e2:	48 8b 44 24 30       	mov    0x30(%rsp),%rax
   1400019e7:	41 8b cb             	mov    %r11d,%ecx
   1400019ea:	83 e1 3f             	and    $0x3f,%ecx
   1400019ed:	48 8b d6             	mov    %rsi,%rdx
   1400019f0:	48 d3 e2             	shl    %cl,%rdx
   1400019f3:	46 8b 4c b8 04       	mov    0x4(%rax,%r15,4),%r9d
   1400019f8:	45 8b c1             	mov    %r9d,%r8d
   1400019fb:	45 0f b7 f9          	movzwl %r9w,%r15d
   1400019ff:	41 c1 e8 18          	shr    $0x18,%r8d
   140001a03:	41 c1 e9 10          	shr    $0x10,%r9d
   140001a07:	41 8b c8             	mov    %r8d,%ecx
   140001a0a:	f7 d9                	neg    %ecx
   140001a0c:	44 88 0b             	mov    %r9b,(%rbx)
   140001a0f:	83 e1 3f             	and    $0x3f,%ecx
   140001a12:	48 ff c3             	inc    %rbx
   140001a15:	48 d3 ea             	shr    %cl,%rdx
   140001a18:	47 8d 14 18          	lea    (%r8,%r11,1),%r10d
   140001a1c:	4c 03 fa             	add    %rdx,%r15
   140001a1f:	41 83 fa 40          	cmp    $0x40,%r10d
   140001a23:	0f 87 a1 00 00 00    	ja     0x140001aca
   140001a29:	49 3b fd             	cmp    %r13,%rdi
   140001a2c:	72 10                	jb     0x140001a3e
   140001a2e:	41 8b c2             	mov    %r10d,%eax
   140001a31:	48 c1 e8 03          	shr    $0x3,%rax
   140001a35:	48 2b f8             	sub    %rax,%rdi
   140001a38:	41 83 e2 07          	and    $0x7,%r10d
   140001a3c:	eb 2f                	jmp    0x140001a6d
   140001a3e:	49 3b fe             	cmp    %r14,%rdi
   140001a41:	74 32                	je     0x140001a75
   140001a43:	41 8b d2             	mov    %r10d,%edx
   140001a46:	48 8b cf             	mov    %rdi,%rcx
   140001a49:	c1 ea 03             	shr    $0x3,%edx
   140001a4c:	8b c2                	mov    %edx,%eax
   140001a4e:	48 2b c8             	sub    %rax,%rcx
   140001a51:	49 3b ce             	cmp    %r14,%rcx
   140001a54:	73 08                	jae    0x140001a5e
   140001a56:	8b 54 24 48          	mov    0x48(%rsp),%edx
   140001a5a:	2b 54 24 50          	sub    0x50(%rsp),%edx
   140001a5e:	8b c2                	mov    %edx,%eax
   140001a60:	48 2b f8             	sub    %rax,%rdi
   140001a63:	8d 04 d5 00 00 00 00 	lea    0x0(,%rdx,8),%eax
   140001a6a:	44 2b d0             	sub    %eax,%r10d
   140001a6d:	48 8b 37             	mov    (%rdi),%rsi
   140001a70:	48 89 7c 24 48       	mov    %rdi,0x48(%rsp)
   140001a75:	48 8b 44 24 60       	mov    0x60(%rsp),%rax
   140001a7a:	4c 8b 5c 24 30       	mov    0x30(%rsp),%r11
   140001a7f:	48 05 fd 00 00 00    	add    $0xfd,%rax
   140001a85:	48 3b d8             	cmp    %rax,%rbx
   140001a88:	0f 86 b2 fe ff ff    	jbe    0x140001940
   140001a8e:	48 c7 c0 ba ff ff ff 	mov    $0xffffffffffffffba,%rax
   140001a95:	4c 8b ac 24 98 02 00 	mov    0x298(%rsp),%r13
   140001a9c:	00 
   140001a9d:	4c 8b a4 24 d8 02 00 	mov    0x2d8(%rsp),%r12
   140001aa4:	00 
   140001aa5:	4c 8b b4 24 90 02 00 	mov    0x290(%rsp),%r14
   140001aac:	00 
   140001aad:	48 8b 8d 80 01 00 00 	mov    0x180(%rbp),%rcx
   140001ab4:	48 33 cc             	xor    %rsp,%rcx
   140001ab7:	e8 04 aa 00 00       	callq  0x14000c4c0
   140001abc:	48 81 c4 a0 02 00 00 	add    $0x2a0,%rsp
   140001ac3:	41 5f                	pop    %r15
   140001ac5:	5f                   	pop    %rdi
   140001ac6:	5e                   	pop    %rsi
   140001ac7:	5b                   	pop    %rbx
   140001ac8:	5d                   	pop    %rbp
   140001ac9:	c3                   	retq   
   140001aca:	42 0f b6 44 a0 06    	movzbl 0x6(%rax,%r12,4),%eax
   140001ad0:	88 03                	mov    %al,(%rbx)
   140001ad2:	48 2b 5c 24 60       	sub    0x60(%rsp),%rbx
   140001ad7:	48 8d 43 01          	lea    0x1(%rbx),%rax
   140001adb:	eb b8                	jmp    0x140001a95
   140001add:	48 8b 44 24 30       	mov    0x30(%rsp),%rax
   140001ae2:	42 0f b6 44 b8 06    	movzbl 0x6(%rax,%r15,4),%eax
   140001ae8:	88 03                	mov    %al,(%rbx)
   140001aea:	48 2b 5c 24 60       	sub    0x60(%rsp),%rbx
   140001aef:	48 8d 43 01          	lea    0x1(%rbx),%rax
   140001af3:	eb a0                	jmp    0x140001a95
   140001af5:	49 8b f7             	mov    %r15,%rsi
   140001af8:	48 83 ff 01          	cmp    $0x1,%rdi
   140001afc:	73 09                	jae    0x140001b07
   140001afe:	48 c7 c0 b8 ff ff ff 	mov    $0xffffffffffffffb8,%rax
   140001b05:	eb 8e                	jmp    0x140001a95
   140001b07:	4c 8b c7             	mov    %rdi,%r8
   140001b0a:	48 8d 4c 24 38       	lea    0x38(%rsp),%rcx
   140001b0f:	49 8b d6             	mov    %r14,%rdx
   140001b12:	e8 a9 f5 ff ff       	callq  0x1400010c0
   140001b17:	48 83 f8 88          	cmp    $0xffffffffffffff88,%rax
   140001b1b:	0f 87 74 ff ff ff    	ja     0x140001a95
   140001b21:	44 0f b7 23          	movzwl (%rbx),%r12d
   140001b25:	4c 8d 1d 94 6c 02 00 	lea    0x26c94(%rip),%r11        # 0x1400287c0
   140001b2c:	8b 54 24 40          	mov    0x40(%rsp),%edx
   140001b30:	4c 8b 74 24 38       	mov    0x38(%rsp),%r14
   140001b35:	41 03 d4             	add    %r12d,%edx
   140001b38:	4c 8b 7c 24 50       	mov    0x50(%rsp),%r15
   140001b3d:	8b ca                	mov    %edx,%ecx
   140001b3f:	47 8b 04 a3          	mov    (%r11,%r12,4),%r8d
   140001b43:	f7 d9                	neg    %ecx
   140001b45:	4c 8b 6c 24 58       	mov    0x58(%rsp),%r13
   140001b4a:	83 e1 3f             	and    $0x3f,%ecx
   140001b4d:	48 8b 7c 24 48       	mov    0x48(%rsp),%rdi
   140001b52:	49 8b de             	mov    %r14,%rbx
   140001b55:	48 d3 eb             	shr    %cl,%rbx
   140001b58:	8b c2                	mov    %edx,%eax
   140001b5a:	49 23 d8             	and    %r8,%rbx
   140001b5d:	4c 89 44 24 70       	mov    %r8,0x70(%rsp)
   140001b62:	45 8b cf             	mov    %r15d,%r9d
   140001b65:	83 fa 40             	cmp    $0x40,%edx
   140001b68:	77 54                	ja     0x140001bbe
   140001b6a:	49 3b fd             	cmp    %r13,%rdi
   140001b6d:	72 0e                	jb     0x140001b7d
   140001b6f:	8b c2                	mov    %edx,%eax
   140001b71:	48 c1 e8 03          	shr    $0x3,%rax
   140001b75:	48 2b f8             	sub    %rax,%rdi
   140001b78:	83 e2 07             	and    $0x7,%edx
   140001b7b:	eb 37                	jmp    0x140001bb4
   140001b7d:	49 3b ff             	cmp    %r15,%rdi
   140001b80:	74 3c                	je     0x140001bbe
   140001b82:	44 8b c2             	mov    %edx,%r8d
   140001b85:	48 8b cf             	mov    %rdi,%rcx
   140001b88:	41 c1 e8 03          	shr    $0x3,%r8d
   140001b8c:	41 8b c0             	mov    %r8d,%eax
   140001b8f:	48 2b c8             	sub    %rax,%rcx
   140001b92:	49 3b cf             	cmp    %r15,%rcx
   140001b95:	73 08                	jae    0x140001b9f
   140001b97:	44 8b 44 24 48       	mov    0x48(%rsp),%r8d
   140001b9c:	45 2b c1             	sub    %r9d,%r8d
   140001b9f:	41 8b c0             	mov    %r8d,%eax
   140001ba2:	48 2b f8             	sub    %rax,%rdi
   140001ba5:	42 8d 04 c5 00 00 00 	lea    0x0(,%r8,8),%eax
   140001bac:	00 
   140001bad:	4c 8b 44 24 70       	mov    0x70(%rsp),%r8
   140001bb2:	2b d0                	sub    %eax,%edx
   140001bb4:	4c 8b 37             	mov    (%rdi),%r14
   140001bb7:	8b c2                	mov    %edx,%eax
   140001bb9:	48 89 7c 24 48       	mov    %rdi,0x48(%rsp)
   140001bbe:	41 8d 0c 04          	lea    (%r12,%rax,1),%ecx
   140001bc2:	45 8d 14 14          	lea    (%r12,%rdx,1),%r10d
   140001bc6:	f7 d9                	neg    %ecx
   140001bc8:	83 e1 3f             	and    $0x3f,%ecx
   140001bcb:	4d 8b e6             	mov    %r14,%r12
   140001bce:	49 d3 ec             	shr    %cl,%r12
   140001bd1:	4d 23 e0             	and    %r8,%r12
   140001bd4:	41 83 fa 40          	cmp    $0x40,%r10d
   140001bd8:	77 51                	ja     0x140001c2b
   140001bda:	49 3b fd             	cmp    %r13,%rdi
   140001bdd:	72 10                	jb     0x140001bef
   140001bdf:	41 8b c2             	mov    %r10d,%eax
   140001be2:	48 c1 e8 03          	shr    $0x3,%rax
   140001be6:	48 2b f8             	sub    %rax,%rdi
   140001be9:	41 83 e2 07          	and    $0x7,%r10d
   140001bed:	eb 2e                	jmp    0x140001c1d
   140001bef:	49 3b ff             	cmp    %r15,%rdi
   140001bf2:	74 31                	je     0x140001c25
   140001bf4:	41 8b d2             	mov    %r10d,%edx
   140001bf7:	48 8b cf             	mov    %rdi,%rcx
   140001bfa:	c1 ea 03             	shr    $0x3,%edx
   140001bfd:	8b c2                	mov    %edx,%eax
   140001bff:	48 2b c8             	sub    %rax,%rcx
   140001c02:	49 3b cf             	cmp    %r15,%rcx
   140001c05:	73 07                	jae    0x140001c0e
   140001c07:	8b 54 24 48          	mov    0x48(%rsp),%edx
   140001c0b:	41 2b d1             	sub    %r9d,%edx
   140001c0e:	8b c2                	mov    %edx,%eax
   140001c10:	48 2b f8             	sub    %rax,%rdi
   140001c13:	8d 04 d5 00 00 00 00 	lea    0x0(,%rdx,8),%eax
   140001c1a:	44 2b d0             	sub    %eax,%r10d
   140001c1d:	4c 8b 37             	mov    (%rdi),%r14
   140001c20:	48 89 7c 24 48       	mov    %rdi,0x48(%rsp)
   140001c25:	41 83 fa 40          	cmp    $0x40,%r10d
   140001c29:	76 08                	jbe    0x140001c33
   140001c2b:	41 b8 03 00 00 00    	mov    $0x3,%r8d
   140001c31:	eb 60                	jmp    0x140001c93
   140001c33:	49 3b fd             	cmp    %r13,%rdi
   140001c36:	72 13                	jb     0x140001c4b
   140001c38:	41 8b c2             	mov    %r10d,%eax
   140001c3b:	41 83 e2 07          	and    $0x7,%r10d
   140001c3f:	48 c1 e8 03          	shr    $0x3,%rax
   140001c43:	48 2b f8             	sub    %rax,%rdi
   140001c46:	45 33 c0             	xor    %r8d,%r8d
   140001c49:	eb 40                	jmp    0x140001c8b
   140001c4b:	49 3b ff             	cmp    %r15,%rdi
   140001c4e:	75 0d                	jne    0x140001c5d
   140001c50:	41 83 fa 40          	cmp    $0x40,%r10d
   140001c54:	45 1b c0             	sbb    %r8d,%r8d
   140001c57:	41 83 c0 02          	add    $0x2,%r8d
   140001c5b:	eb 36                	jmp    0x140001c93
   140001c5d:	41 8b d2             	mov    %r10d,%edx
   140001c60:	48 8b cf             	mov    %rdi,%rcx
   140001c63:	c1 ea 03             	shr    $0x3,%edx
   140001c66:	45 33 c0             	xor    %r8d,%r8d
   140001c69:	8b c2                	mov    %edx,%eax
   140001c6b:	48 2b c8             	sub    %rax,%rcx
   140001c6e:	49 3b cf             	cmp    %r15,%rcx
   140001c71:	73 0d                	jae    0x140001c80
   140001c73:	8b 54 24 48          	mov    0x48(%rsp),%edx
   140001c77:	41 b8 01 00 00 00    	mov    $0x1,%r8d
   140001c7d:	41 2b d1             	sub    %r9d,%edx
   140001c80:	8b c2                	mov    %edx,%eax
   140001c82:	48 2b f8             	sub    %rax,%rdi
   140001c85:	6b c2 f8             	imul   $0xfffffff8,%edx,%eax
   140001c88:	44 03 d0             	add    %eax,%r10d
   140001c8b:	4c 8b 37             	mov    (%rdi),%r14
   140001c8e:	48 89 7c 24 48       	mov    %rdi,0x48(%rsp)
   140001c93:	48 8b 54 24 60       	mov    0x60(%rsp),%rdx
   140001c98:	33 c9                	xor    %ecx,%ecx
   140001c9a:	48 8d 82 fc 00 00 00 	lea    0xfc(%rdx),%rax
   140001ca1:	48 3b f0             	cmp    %rax,%rsi
   140001ca4:	0f 92 c1             	setb   %cl
   140001ca7:	33 c0                	xor    %eax,%eax
   140001ca9:	45 85 c0             	test   %r8d,%r8d
   140001cac:	0f 94 c0             	sete   %al
   140001caf:	85 c8                	test   %ecx,%eax
   140001cb1:	0f 84 f0 00 00 00    	je     0x140001da7
   140001cb7:	48 8b 44 24 30       	mov    0x30(%rsp),%rax
   140001cbc:	4d 8b c6             	mov    %r14,%r8
   140001cbf:	44 8b 4c 98 04       	mov    0x4(%rax,%rbx,4),%r9d
   140001cc4:	41 8b d1             	mov    %r9d,%edx
   140001cc7:	c1 ea 18             	shr    $0x18,%edx
   140001cca:	42 8d 1c 12          	lea    (%rdx,%r10,1),%ebx
   140001cce:	45 0f b7 d1          	movzwl %r9w,%r10d
   140001cd2:	41 c1 e9 10          	shr    $0x10,%r9d
   140001cd6:	8b cb                	mov    %ebx,%ecx
   140001cd8:	f7 d9                	neg    %ecx
   140001cda:	44 88 0e             	mov    %r9b,(%rsi)
   140001cdd:	83 e1 3f             	and    $0x3f,%ecx
   140001ce0:	4c 8b c8             	mov    %rax,%r9
   140001ce3:	49 d3 e8             	shr    %cl,%r8
   140001ce6:	41 8b 0c 93          	mov    (%r11,%rdx,4),%ecx
   140001cea:	4d 8b de             	mov    %r14,%r11
   140001ced:	42 8b 54 a0 04       	mov    0x4(%rax,%r12,4),%edx
   140001cf2:	4c 23 c1             	and    %rcx,%r8
   140001cf5:	4d 03 d0             	add    %r8,%r10
   140001cf8:	0f b7 c2             	movzwl %dx,%eax
   140001cfb:	44 8b c2             	mov    %edx,%r8d
   140001cfe:	4c 8d 25 bb 6a 02 00 	lea    0x26abb(%rip),%r12        # 0x1400287c0
   140001d05:	c1 ea 10             	shr    $0x10,%edx
   140001d08:	88 56 01             	mov    %dl,0x1(%rsi)
   140001d0b:	47 8b 4c 91 04       	mov    0x4(%r9,%r10,4),%r9d
   140001d10:	41 8b d1             	mov    %r9d,%edx
   140001d13:	41 c1 e8 18          	shr    $0x18,%r8d
   140001d17:	c1 ea 18             	shr    $0x18,%edx
   140001d1a:	41 8d 0c 18          	lea    (%r8,%rbx,1),%ecx
   140001d1e:	f7 d9                	neg    %ecx
   140001d20:	83 e1 3f             	and    $0x3f,%ecx
   140001d23:	49 d3 eb             	shr    %cl,%r11
   140001d26:	43 8b 0c 84          	mov    (%r12,%r8,4),%ecx
   140001d2a:	44 03 c2             	add    %edx,%r8d
   140001d2d:	4c 23 d9             	and    %rcx,%r11
   140001d30:	44 03 c3             	add    %ebx,%r8d
   140001d33:	4c 03 d8             	add    %rax,%r11
   140001d36:	41 8b c8             	mov    %r8d,%ecx
   140001d39:	f7 d9                	neg    %ecx
   140001d3b:	41 0f b7 c1          	movzwl %r9w,%eax
   140001d3f:	83 e1 3f             	and    $0x3f,%ecx
   140001d42:	41 c1 e9 10          	shr    $0x10,%r9d
   140001d46:	44 88 4e 02          	mov    %r9b,0x2(%rsi)
   140001d4a:	49 8b de             	mov    %r14,%rbx
   140001d4d:	48 d3 eb             	shr    %cl,%rbx
   140001d50:	41 8b 0c 94          	mov    (%r12,%rdx,4),%ecx
   140001d54:	4d 8b e6             	mov    %r14,%r12
   140001d57:	48 23 d9             	and    %rcx,%rbx
   140001d5a:	48 03 d8             	add    %rax,%rbx
   140001d5d:	48 8b 44 24 30       	mov    0x30(%rsp),%rax
   140001d62:	46 8b 4c 98 04       	mov    0x4(%rax,%r11,4),%r9d
   140001d67:	4c 8d 1d 52 6a 02 00 	lea    0x26a52(%rip),%r11        # 0x1400287c0
   140001d6e:	41 8b d1             	mov    %r9d,%edx
   140001d71:	41 0f b7 c1          	movzwl %r9w,%eax
   140001d75:	c1 ea 18             	shr    $0x18,%edx
   140001d78:	41 c1 e9 10          	shr    $0x10,%r9d
   140001d7c:	44 88 4e 03          	mov    %r9b,0x3(%rsi)
   140001d80:	44 8b 4c 24 50       	mov    0x50(%rsp),%r9d
   140001d85:	46 8d 14 02          	lea    (%rdx,%r8,1),%r10d
   140001d89:	41 8b ca             	mov    %r10d,%ecx
   140001d8c:	f7 d9                	neg    %ecx
   140001d8e:	83 e1 3f             	and    $0x3f,%ecx
   140001d91:	49 d3 ec             	shr    %cl,%r12
   140001d94:	41 8b 0c 93          	mov    (%r11,%rdx,4),%ecx
   140001d98:	4c 23 e1             	and    %rcx,%r12
   140001d9b:	4c 03 e0             	add    %rax,%r12
   140001d9e:	48 83 c6 04          	add    $0x4,%rsi
   140001da2:	e9 7e fe ff ff       	jmpq   0x140001c25
   140001da7:	48 8d 82 fd 00 00 00 	lea    0xfd(%rdx),%rax
   140001dae:	48 3b f0             	cmp    %rax,%rsi
   140001db1:	0f 87 d7 fc ff ff    	ja     0x140001a8e
   140001db7:	66 0f 1f 84 00 00 00 	nopw   0x0(%rax,%rax,1)
   140001dbe:	00 00 
   140001dc0:	48 8b 44 24 30       	mov    0x30(%rsp),%rax
   140001dc5:	4d 8b c6             	mov    %r14,%r8
   140001dc8:	44 8b 4c 98 04       	mov    0x4(%rax,%rbx,4),%r9d
   140001dcd:	41 8b d1             	mov    %r9d,%edx
   140001dd0:	41 0f b7 d9          	movzwl %r9w,%ebx
   140001dd4:	c1 ea 18             	shr    $0x18,%edx
   140001dd7:	41 c1 e9 10          	shr    $0x10,%r9d
   140001ddb:	44 88 0e             	mov    %r9b,(%rsi)
   140001dde:	48 ff c6             	inc    %rsi
   140001de1:	46 8d 1c 12          	lea    (%rdx,%r10,1),%r11d
   140001de5:	41 8b cb             	mov    %r11d,%ecx
   140001de8:	f7 d9                	neg    %ecx
   140001dea:	83 e1 3f             	and    $0x3f,%ecx
   140001ded:	49 d3 e8             	shr    %cl,%r8
   140001df0:	48 8d 0d c9 69 02 00 	lea    0x269c9(%rip),%rcx        # 0x1400287c0
   140001df7:	8b 0c 91             	mov    (%rcx,%rdx,4),%ecx
   140001dfa:	4c 23 c1             	and    %rcx,%r8
   140001dfd:	49 03 d8             	add    %r8,%rbx
   140001e00:	41 83 fb 40          	cmp    $0x40,%r11d
   140001e04:	0f 87 20 01 00 00    	ja     0x140001f2a
   140001e0a:	49 3b fd             	cmp    %r13,%rdi
   140001e0d:	72 10                	jb     0x140001e1f
   140001e0f:	41 8b c3             	mov    %r11d,%eax
   140001e12:	48 c1 e8 03          	shr    $0x3,%rax
   140001e16:	48 2b f8             	sub    %rax,%rdi
   140001e19:	41 83 e3 07          	and    $0x7,%r11d
   140001e1d:	eb 2f                	jmp    0x140001e4e
   140001e1f:	49 3b ff             	cmp    %r15,%rdi
   140001e22:	74 32                	je     0x140001e56
   140001e24:	41 8b d3             	mov    %r11d,%edx
   140001e27:	48 8b cf             	mov    %rdi,%rcx
   140001e2a:	c1 ea 03             	shr    $0x3,%edx
   140001e2d:	8b c2                	mov    %edx,%eax
   140001e2f:	48 2b c8             	sub    %rax,%rcx
   140001e32:	49 3b cf             	cmp    %r15,%rcx
   140001e35:	73 08                	jae    0x140001e3f
   140001e37:	8b 54 24 48          	mov    0x48(%rsp),%edx
   140001e3b:	2b 54 24 50          	sub    0x50(%rsp),%edx
   140001e3f:	8b c2                	mov    %edx,%eax
   140001e41:	48 2b f8             	sub    %rax,%rdi
   140001e44:	8d 04 d5 00 00 00 00 	lea    0x0(,%rdx,8),%eax
   140001e4b:	44 2b d8             	sub    %eax,%r11d
   140001e4e:	4c 8b 37             	mov    (%rdi),%r14
   140001e51:	48 89 7c 24 48       	mov    %rdi,0x48(%rsp)
   140001e56:	48 8b 44 24 60       	mov    0x60(%rsp),%rax
   140001e5b:	48 05 fd 00 00 00    	add    $0xfd,%rax
   140001e61:	48 3b f0             	cmp    %rax,%rsi
   140001e64:	0f 87 24 fc ff ff    	ja     0x140001a8e
   140001e6a:	48 8b 44 24 30       	mov    0x30(%rsp),%rax
   140001e6f:	4d 8b c6             	mov    %r14,%r8
   140001e72:	46 8b 4c a0 04       	mov    0x4(%rax,%r12,4),%r9d
   140001e77:	41 8b d1             	mov    %r9d,%edx
   140001e7a:	45 0f b7 e1          	movzwl %r9w,%r12d
   140001e7e:	c1 ea 18             	shr    $0x18,%edx
   140001e81:	41 c1 e9 10          	shr    $0x10,%r9d
   140001e85:	44 88 0e             	mov    %r9b,(%rsi)
   140001e88:	48 ff c6             	inc    %rsi
   140001e8b:	45 8d 14 13          	lea    (%r11,%rdx,1),%r10d
   140001e8f:	41 8b ca             	mov    %r10d,%ecx
   140001e92:	f7 d9                	neg    %ecx
   140001e94:	83 e1 3f             	and    $0x3f,%ecx
   140001e97:	49 d3 e8             	shr    %cl,%r8
   140001e9a:	48 8d 0d 1f 69 02 00 	lea    0x2691f(%rip),%rcx        # 0x1400287c0
   140001ea1:	8b 0c 91             	mov    (%rcx,%rdx,4),%ecx
   140001ea4:	4c 23 c1             	and    %rcx,%r8
   140001ea7:	4d 03 e0             	add    %r8,%r12
   140001eaa:	41 83 fa 40          	cmp    $0x40,%r10d
   140001eae:	77 65                	ja     0x140001f15
   140001eb0:	49 3b fd             	cmp    %r13,%rdi
   140001eb3:	72 10                	jb     0x140001ec5
   140001eb5:	41 8b c2             	mov    %r10d,%eax
   140001eb8:	48 c1 e8 03          	shr    $0x3,%rax
   140001ebc:	48 2b f8             	sub    %rax,%rdi
   140001ebf:	41 83 e2 07          	and    $0x7,%r10d
   140001ec3:	eb 2f                	jmp    0x140001ef4
   140001ec5:	49 3b ff             	cmp    %r15,%rdi
   140001ec8:	74 32                	je     0x140001efc
   140001eca:	41 8b d2             	mov    %r10d,%edx
   140001ecd:	48 8b cf             	mov    %rdi,%rcx
   140001ed0:	c1 ea 03             	shr    $0x3,%edx
   140001ed3:	8b c2                	mov    %edx,%eax
   140001ed5:	48 2b c8             	sub    %rax,%rcx
   140001ed8:	49 3b cf             	cmp    %r15,%rcx
   140001edb:	73 08                	jae    0x140001ee5
   140001edd:	8b 54 24 48          	mov    0x48(%rsp),%edx
   140001ee1:	2b 54 24 50          	sub    0x50(%rsp),%edx
   140001ee5:	8b c2                	mov    %edx,%eax
   140001ee7:	48 2b f8             	sub    %rax,%rdi
   140001eea:	8d 04 d5 00 00 00 00 	lea    0x0(,%rdx,8),%eax
   140001ef1:	44 2b d0             	sub    %eax,%r10d
   140001ef4:	4c 8b 37             	mov    (%rdi),%r14
   140001ef7:	48 89 7c 24 48       	mov    %rdi,0x48(%rsp)
   140001efc:	48 8b 44 24 60       	mov    0x60(%rsp),%rax
   140001f01:	48 05 fd 00 00 00    	add    $0xfd,%rax
   140001f07:	48 3b f0             	cmp    %rax,%rsi
   140001f0a:	0f 86 b0 fe ff ff    	jbe    0x140001dc0
   140001f10:	e9 79 fb ff ff       	jmpq   0x140001a8e
   140001f15:	0f b6 44 98 06       	movzbl 0x6(%rax,%rbx,4),%eax
   140001f1a:	88 06                	mov    %al,(%rsi)
   140001f1c:	48 2b 74 24 60       	sub    0x60(%rsp),%rsi
   140001f21:	48 8d 46 01          	lea    0x1(%rsi),%rax
   140001f25:	e9 6b fb ff ff       	jmpq   0x140001a95
   140001f2a:	42 0f b6 44 a0 06    	movzbl 0x6(%rax,%r12,4),%eax
   140001f30:	88 06                	mov    %al,(%rsi)
   140001f32:	48 2b 74 24 60       	sub    0x60(%rsp),%rsi
   140001f37:	48 8d 46 01          	lea    0x1(%rsi),%rax
   140001f3b:	e9 55 fb ff ff       	jmpq   0x140001a95
   140001f40:	48 89 5c 24 18       	mov    %rbx,0x18(%rsp)
   140001f45:	55                   	push   %rbp
   140001f46:	56                   	push   %rsi
   140001f47:	57                   	push   %rdi
   140001f48:	48 83 ec 20          	sub    $0x20,%rsp
   140001f4c:	4c 01 01             	add    %r8,(%rcx)
   140001f4f:	4a 8d 2c 02          	lea    (%rdx,%r8,1),%rbp
   140001f53:	48 8b d9             	mov    %rcx,%rbx
   140001f56:	49 8b f8             	mov    %r8,%rdi
   140001f59:	8b 49 48             	mov    0x48(%rcx),%ecx
   140001f5c:	48 8b f2             	mov    %rdx,%rsi
   140001f5f:	4a 8d 04 01          	lea    (%rcx,%r8,1),%rax
   140001f63:	48 83 f8 20          	cmp    $0x20,%rax
   140001f67:	73 29                	jae    0x140001f92
   140001f69:	48 85 d2             	test   %rdx,%rdx
   140001f6c:	74 0f                	je     0x140001f7d
   140001f6e:	48 83 c1 28          	add    $0x28,%rcx
   140001f72:	48 03 cb             	add    %rbx,%rcx
   140001f75:	e8 16 c3 00 00       	callq  0x14000e290
   140001f7a:	8b 4b 48             	mov    0x48(%rbx),%ecx
   140001f7d:	8d 04 39             	lea    (%rcx,%rdi,1),%eax
   140001f80:	89 43 48             	mov    %eax,0x48(%rbx)
   140001f83:	33 c0                	xor    %eax,%eax
   140001f85:	48 8b 5c 24 50       	mov    0x50(%rsp),%rbx
   140001f8a:	48 83 c4 20          	add    $0x20,%rsp
   140001f8e:	5f                   	pop    %rdi
   140001f8f:	5e                   	pop    %rsi
   140001f90:	5d                   	pop    %rbp
   140001f91:	c3                   	retq   
   140001f92:	4c 89 74 24 40       	mov    %r14,0x40(%rsp)
   140001f97:	49 be 4f eb d4 27 3d 	movabs $0xc2b2ae3d27d4eb4f,%r14
   140001f9e:	ae b2 c2 
   140001fa1:	4c 89 7c 24 48       	mov    %r15,0x48(%rsp)
   140001fa6:	49 bf 87 ca eb 85 b1 	movabs $0x9e3779b185ebca87,%r15
   140001fad:	79 37 9e 
   140001fb0:	85 c9                	test   %ecx,%ecx
   140001fb2:	0f 84 86 00 00 00    	je     0x14000203e
   140001fb8:	bf 20 00 00 00       	mov    $0x20,%edi
   140001fbd:	44 8b c7             	mov    %edi,%r8d
   140001fc0:	44 2b c1             	sub    %ecx,%r8d
   140001fc3:	48 83 c1 28          	add    $0x28,%rcx
   140001fc7:	48 03 cb             	add    %rbx,%rcx
   140001fca:	e8 c1 c2 00 00       	callq  0x14000e290
   140001fcf:	48 8b 43 28          	mov    0x28(%rbx),%rax
   140001fd3:	2b 7b 48             	sub    0x48(%rbx),%edi
   140001fd6:	49 0f af c6          	imul   %r14,%rax
   140001fda:	48 03 43 08          	add    0x8(%rbx),%rax
   140001fde:	48 c1 c0 1f          	rol    $0x1f,%rax
   140001fe2:	49 0f af c7          	imul   %r15,%rax
   140001fe6:	48 89 43 08          	mov    %rax,0x8(%rbx)
   140001fea:	48 8b 43 30          	mov    0x30(%rbx),%rax
   140001fee:	49 0f af c6          	imul   %r14,%rax
   140001ff2:	48 03 43 10          	add    0x10(%rbx),%rax
   140001ff6:	48 c1 c0 1f          	rol    $0x1f,%rax
   140001ffa:	49 0f af c7          	imul   %r15,%rax
   140001ffe:	48 89 43 10          	mov    %rax,0x10(%rbx)
   140002002:	48 8b 43 38          	mov    0x38(%rbx),%rax
   140002006:	49 0f af c6          	imul   %r14,%rax
   14000200a:	48 03 43 18          	add    0x18(%rbx),%rax
   14000200e:	48 c1 c0 1f          	rol    $0x1f,%rax
   140002012:	49 0f af c7          	imul   %r15,%rax
   140002016:	48 89 43 18          	mov    %rax,0x18(%rbx)
   14000201a:	48 8b 43 40          	mov    0x40(%rbx),%rax
   14000201e:	49 0f af c6          	imul   %r14,%rax
   140002022:	c7 43 48 00 00 00 00 	movl   $0x0,0x48(%rbx)
   140002029:	48 03 43 20          	add    0x20(%rbx),%rax
   14000202d:	48 c1 c0 1f          	rol    $0x1f,%rax
   140002031:	49 0f af c7          	imul   %r15,%rax
   140002035:	48 89 43 20          	mov    %rax,0x20(%rbx)
   140002039:	8b c7                	mov    %edi,%eax
   14000203b:	48 03 f0             	add    %rax,%rsi
   14000203e:	48 8d 46 20          	lea    0x20(%rsi),%rax
   140002042:	48 3b c5             	cmp    %rbp,%rax
   140002045:	0f 87 79 00 00 00    	ja     0x1400020c4
   14000204b:	48 8b 53 08          	mov    0x8(%rbx),%rdx
   14000204f:	4c 8d 5d e0          	lea    -0x20(%rbp),%r11
   140002053:	4c 8b 43 10          	mov    0x10(%rbx),%r8
   140002057:	4c 8b 4b 18          	mov    0x18(%rbx),%r9
   14000205b:	4c 8b 53 20          	mov    0x20(%rbx),%r10
   14000205f:	90                   	nop
   140002060:	48 8b 06             	mov    (%rsi),%rax
   140002063:	49 0f af c6          	imul   %r14,%rax
   140002067:	48 03 d0             	add    %rax,%rdx
   14000206a:	48 8b 46 08          	mov    0x8(%rsi),%rax
   14000206e:	49 0f af c6          	imul   %r14,%rax
   140002072:	48 c1 c2 1f          	rol    $0x1f,%rdx
   140002076:	4c 03 c0             	add    %rax,%r8
   140002079:	48 8b 46 10          	mov    0x10(%rsi),%rax
   14000207d:	49 0f af c6          	imul   %r14,%rax
   140002081:	49 0f af d7          	imul   %r15,%rdx
   140002085:	4c 03 c8             	add    %rax,%r9
   140002088:	49 c1 c0 1f          	rol    $0x1f,%r8
   14000208c:	48 8b 46 18          	mov    0x18(%rsi),%rax
   140002090:	48 83 c6 20          	add    $0x20,%rsi
   140002094:	49 0f af c6          	imul   %r14,%rax
   140002098:	4d 0f af c7          	imul   %r15,%r8
   14000209c:	4c 03 d0             	add    %rax,%r10
   14000209f:	49 c1 c1 1f          	rol    $0x1f,%r9
   1400020a3:	49 c1 c2 1f          	rol    $0x1f,%r10
   1400020a7:	4d 0f af d7          	imul   %r15,%r10
   1400020ab:	4d 0f af cf          	imul   %r15,%r9
   1400020af:	49 3b f3             	cmp    %r11,%rsi
   1400020b2:	76 ac                	jbe    0x140002060
   1400020b4:	48 89 53 08          	mov    %rdx,0x8(%rbx)
   1400020b8:	4c 89 43 10          	mov    %r8,0x10(%rbx)
   1400020bc:	4c 89 4b 18          	mov    %r9,0x18(%rbx)
   1400020c0:	4c 89 53 20          	mov    %r10,0x20(%rbx)
   1400020c4:	4c 8b 7c 24 48       	mov    0x48(%rsp),%r15
   1400020c9:	4c 8b 74 24 40       	mov    0x40(%rsp),%r14
   1400020ce:	48 3b f5             	cmp    %rbp,%rsi
   1400020d1:	73 17                	jae    0x1400020ea
   1400020d3:	4c 8b c5             	mov    %rbp,%r8
   1400020d6:	48 8d 4b 28          	lea    0x28(%rbx),%rcx
   1400020da:	4c 2b c6             	sub    %rsi,%r8
   1400020dd:	48 8b d6             	mov    %rsi,%rdx
   1400020e0:	e8 ab c1 00 00       	callq  0x14000e290
   1400020e5:	2b ee                	sub    %esi,%ebp
   1400020e7:	89 6b 48             	mov    %ebp,0x48(%rbx)
   1400020ea:	48 8b 5c 24 50       	mov    0x50(%rsp),%rbx
   1400020ef:	33 c0                	xor    %eax,%eax
   1400020f1:	48 83 c4 20          	add    $0x20,%rsp
   1400020f5:	5f                   	pop    %rdi
   1400020f6:	5e                   	pop    %rsi
   1400020f7:	5d                   	pop    %rbp
   1400020f8:	c3                   	retq   
   1400020f9:	cc                   	int3   
   1400020fa:	cc                   	int3   
   1400020fb:	cc                   	int3   
   1400020fc:	cc                   	int3   
   1400020fd:	cc                   	int3   
   1400020fe:	cc                   	int3   
   1400020ff:	cc                   	int3   
   140002100:	48 89 5c 24 08       	mov    %rbx,0x8(%rsp)
   140002105:	48 89 6c 24 10       	mov    %rbp,0x10(%rsp)
   14000210a:	48 89 74 24 18       	mov    %rsi,0x18(%rsp)
   14000210f:	48 89 7c 24 20       	mov    %rdi,0x20(%rsp)
   140002114:	41 54                	push   %r12
   140002116:	41 56                	push   %r14
   140002118:	41 57                	push   %r15
   14000211a:	8b 41 48             	mov    0x48(%rcx),%eax
   14000211d:	48 8d 59 28          	lea    0x28(%rcx),%rbx
   140002121:	48 8b 31             	mov    (%rcx),%rsi
   140002124:	4c 8d 59 28          	lea    0x28(%rcx),%r11
   140002128:	48 03 d8             	add    %rax,%rbx
   14000212b:	48 8b f9             	mov    %rcx,%rdi
   14000212e:	48 bd 87 ca eb 85 b1 	movabs $0x9e3779b185ebca87,%rbp
   140002135:	79 37 9e 
   140002138:	49 bf c5 67 56 16 2f 	movabs $0x27d4eb2f165667c5,%r15
   14000213f:	eb d4 27 
   140002142:	49 be 4f eb d4 27 3d 	movabs $0xc2b2ae3d27d4eb4f,%r14
   140002149:	ae b2 c2 
   14000214c:	49 bc 9d 51 4d 3d 88 	movabs $0x7a1435883d4d519d,%r12
   140002153:	35 14 7a 
   140002156:	48 83 fe 20          	cmp    $0x20,%rsi
   14000215a:	0f 82 9b 00 00 00    	jb     0x1400021fb
   140002160:	48 8b 49 08          	mov    0x8(%rcx),%rcx
   140002164:	4c 8b 47 18          	mov    0x18(%rdi),%r8
   140002168:	4c 8b 4f 20          	mov    0x20(%rdi),%r9
   14000216c:	49 8b c0             	mov    %r8,%rax
   14000216f:	48 8b 57 10          	mov    0x10(%rdi),%rdx
   140002173:	4d 8b d1             	mov    %r9,%r10
   140002176:	49 c1 c2 12          	rol    $0x12,%r10
   14000217a:	48 c1 c0 0c          	rol    $0xc,%rax
   14000217e:	4c 03 d0             	add    %rax,%r10
   140002181:	48 8b c2             	mov    %rdx,%rax
   140002184:	48 c1 c0 07          	rol    $0x7,%rax
   140002188:	4c 03 d0             	add    %rax,%r10
   14000218b:	48 8b c1             	mov    %rcx,%rax
   14000218e:	48 d1 c0             	rol    %rax
   140002191:	4c 03 d0             	add    %rax,%r10
   140002194:	48 b8 63 ae b2 c2 77 	movabs $0x85ebca77c2b2ae63,%rax
   14000219b:	ca eb 85 
   14000219e:	49 0f af ce          	imul   %r14,%rcx
   1400021a2:	49 0f af d6          	imul   %r14,%rdx
   1400021a6:	4d 0f af c6          	imul   %r14,%r8
   1400021aa:	4d 0f af ce          	imul   %r14,%r9
   1400021ae:	48 c1 c1 1f          	rol    $0x1f,%rcx
   1400021b2:	48 0f af cd          	imul   %rbp,%rcx
   1400021b6:	48 c1 c2 1f          	rol    $0x1f,%rdx
   1400021ba:	4c 33 d1             	xor    %rcx,%r10
   1400021bd:	49 c1 c0 1f          	rol    $0x1f,%r8
   1400021c1:	4c 0f af d5          	imul   %rbp,%r10
   1400021c5:	48 0f af d5          	imul   %rbp,%rdx
   1400021c9:	4c 0f af c5          	imul   %rbp,%r8
   1400021cd:	4d 2b d4             	sub    %r12,%r10
   1400021d0:	49 c1 c1 1f          	rol    $0x1f,%r9
   1400021d4:	4c 33 d2             	xor    %rdx,%r10
   1400021d7:	4c 0f af d5          	imul   %rbp,%r10
   1400021db:	4c 0f af cd          	imul   %rbp,%r9
   1400021df:	4d 2b d4             	sub    %r12,%r10
   1400021e2:	4d 33 d0             	xor    %r8,%r10
   1400021e5:	4c 0f af d5          	imul   %rbp,%r10
   1400021e9:	4d 2b d4             	sub    %r12,%r10
   1400021ec:	4d 33 d1             	xor    %r9,%r10
   1400021ef:	4c 0f af d5          	imul   %rbp,%r10
   1400021f3:	49 03 c2             	add    %r10,%rax
   1400021f6:	48 03 c6             	add    %rsi,%rax
   1400021f9:	eb 08                	jmp    0x140002203
   1400021fb:	4a 8d 04 3e          	lea    (%rsi,%r15,1),%rax
   1400021ff:	48 03 41 18          	add    0x18(%rcx),%rax
   140002203:	48 8d 57 30          	lea    0x30(%rdi),%rdx
   140002207:	48 3b d3             	cmp    %rbx,%rdx
   14000220a:	77 2e                	ja     0x14000223a
   14000220c:	0f 1f 40 00          	nopl   0x0(%rax)
   140002210:	49 8b 0b             	mov    (%r11),%rcx
   140002213:	48 83 c2 08          	add    $0x8,%rdx
   140002217:	49 0f af ce          	imul   %r14,%rcx
   14000221b:	49 83 c3 08          	add    $0x8,%r11
   14000221f:	48 c1 c1 1f          	rol    $0x1f,%rcx
   140002223:	48 0f af cd          	imul   %rbp,%rcx
   140002227:	48 33 c1             	xor    %rcx,%rax
   14000222a:	48 c1 c0 1b          	rol    $0x1b,%rax
   14000222e:	48 0f af c5          	imul   %rbp,%rax
   140002232:	49 2b c4             	sub    %r12,%rax
   140002235:	48 3b d3             	cmp    %rbx,%rdx
   140002238:	76 d6                	jbe    0x140002210
   14000223a:	49 8d 53 04          	lea    0x4(%r11),%rdx
   14000223e:	49 b9 f9 79 37 9e b1 	movabs $0x165667b19e3779f9,%r9
   140002245:	67 56 16 
   140002248:	48 3b d3             	cmp    %rbx,%rdx
   14000224b:	77 18                	ja     0x140002265
   14000224d:	41 8b 0b             	mov    (%r11),%ecx
   140002250:	4c 8b da             	mov    %rdx,%r11
   140002253:	48 0f af cd          	imul   %rbp,%rcx
   140002257:	48 33 c1             	xor    %rcx,%rax
   14000225a:	48 c1 c0 17          	rol    $0x17,%rax
   14000225e:	49 0f af c6          	imul   %r14,%rax
   140002262:	49 03 c1             	add    %r9,%rax
   140002265:	33 d2                	xor    %edx,%edx
   140002267:	4c 8b c3             	mov    %rbx,%r8
   14000226a:	4d 2b c3             	sub    %r11,%r8
   14000226d:	4c 3b db             	cmp    %rbx,%r11
   140002270:	4c 0f 47 c2          	cmova  %rdx,%r8
   140002274:	4d 85 c0             	test   %r8,%r8
   140002277:	74 26                	je     0x14000229f
   140002279:	0f 1f 80 00 00 00 00 	nopl   0x0(%rax)
   140002280:	41 0f b6 0b          	movzbl (%r11),%ecx
   140002284:	4d 8d 5b 01          	lea    0x1(%r11),%r11
   140002288:	49 0f af cf          	imul   %r15,%rcx
   14000228c:	48 ff c2             	inc    %rdx
   14000228f:	48 33 c1             	xor    %rcx,%rax
   140002292:	48 c1 c0 0b          	rol    $0xb,%rax
   140002296:	48 0f af c5          	imul   %rbp,%rax
   14000229a:	49 3b d0             	cmp    %r8,%rdx
   14000229d:	72 e1                	jb     0x140002280
   14000229f:	48 8b 5c 24 20       	mov    0x20(%rsp),%rbx
   1400022a4:	48 8b c8             	mov    %rax,%rcx
   1400022a7:	48 8b 6c 24 28       	mov    0x28(%rsp),%rbp
   1400022ac:	48 8b 74 24 30       	mov    0x30(%rsp),%rsi
   1400022b1:	48 8b 7c 24 38       	mov    0x38(%rsp),%rdi
   1400022b6:	48 c1 e9 21          	shr    $0x21,%rcx
   1400022ba:	48 33 c8             	xor    %rax,%rcx
   1400022bd:	49 0f af ce          	imul   %r14,%rcx
   1400022c1:	48 8b d1             	mov    %rcx,%rdx
   1400022c4:	48 c1 ea 1d          	shr    $0x1d,%rdx
   1400022c8:	48 33 d1             	xor    %rcx,%rdx
   1400022cb:	49 0f af d1          	imul   %r9,%rdx
   1400022cf:	48 8b c2             	mov    %rdx,%rax
   1400022d2:	48 c1 e8 20          	shr    $0x20,%rax
   1400022d6:	48 33 c2             	xor    %rdx,%rax
   1400022d9:	41 5f                	pop    %r15
   1400022db:	41 5e                	pop    %r14
   1400022dd:	41 5c                	pop    %r12
   1400022df:	c3                   	retq   
   1400022e0:	40 53                	rex push %rbx
   1400022e2:	55                   	push   %rbp
   1400022e3:	56                   	push   %rsi
   1400022e4:	57                   	push   %rdi
   1400022e5:	41 54                	push   %r12
   1400022e7:	41 55                	push   %r13
   1400022e9:	41 56                	push   %r14
   1400022eb:	41 57                	push   %r15
   1400022ed:	48 83 ec 58          	sub    $0x58,%rsp
   1400022f1:	48 8b 05 10 9d 02 00 	mov    0x29d10(%rip),%rax        # 0x14002c008
   1400022f8:	48 33 c4             	xor    %rsp,%rax
   1400022fb:	48 89 44 24 48       	mov    %rax,0x48(%rsp)
   140002300:	48 8b ac 24 c0 00 00 	mov    0xc0(%rsp),%rbp
   140002307:	00 
   140002308:	33 f6                	xor    %esi,%esi
   14000230a:	44 8b 22             	mov    (%rdx),%r12d
   14000230d:	45 33 ff             	xor    %r15d,%r15d
   140002310:	41 ff c4             	inc    %r12d
   140002313:	4c 89 4c 24 38       	mov    %r9,0x38(%rsp)
   140002318:	48 89 54 24 30       	mov    %rdx,0x30(%rsp)
   14000231d:	4d 8b f0             	mov    %r8,%r14
   140002320:	49 8d 3c 29          	lea    (%r9,%rbp,1),%rdi
   140002324:	4c 8b e9             	mov    %rcx,%r13
   140002327:	49 8b d9             	mov    %r9,%rbx
   14000232a:	48 83 fd 08          	cmp    $0x8,%rbp
   14000232e:	73 56                	jae    0x140002386
   140002330:	4c 8b c5             	mov    %rbp,%r8
   140002333:	48 89 74 24 40       	mov    %rsi,0x40(%rsp)
   140002338:	49 8b d1             	mov    %r9,%rdx
   14000233b:	48 8d 4c 24 40       	lea    0x40(%rsp),%rcx
   140002340:	e8 4b bf 00 00       	callq  0x14000e290
   140002345:	48 8b 54 24 30       	mov    0x30(%rsp),%rdx
   14000234a:	4c 8d 4c 24 40       	lea    0x40(%rsp),%r9
   14000234f:	4d 8b c6             	mov    %r14,%r8
   140002352:	48 c7 44 24 20 08 00 	movq   $0x8,0x20(%rsp)
   140002359:	00 00 
   14000235b:	49 8b cd             	mov    %r13,%rcx
   14000235e:	e8 7d ff ff ff       	callq  0x1400022e0
   140002363:	48 8b c8             	mov    %rax,%rcx
   140002366:	48 83 f8 88          	cmp    $0xffffffffffffff88,%rax
   14000236a:	0f 87 5b 02 00 00    	ja     0x1400025cb
   140002370:	48 c7 c0 ec ff ff ff 	mov    $0xffffffffffffffec,%rax
   140002377:	48 3b cd             	cmp    %rbp,%rcx
   14000237a:	48 0f 47 c8          	cmova  %rax,%rcx
   14000237e:	48 8b c1             	mov    %rcx,%rax
   140002381:	e9 45 02 00 00       	jmpq   0x1400025cb
   140002386:	45 8b c4             	mov    %r12d,%r8d
   140002389:	33 d2                	xor    %edx,%edx
   14000238b:	4d 03 c0             	add    %r8,%r8
   14000238e:	e8 cd af 00 00       	callq  0x14000d360
   140002393:	44 8b 03             	mov    (%rbx),%r8d
   140002396:	48 8b c3             	mov    %rbx,%rax
   140002399:	41 8b e8             	mov    %r8d,%ebp
   14000239c:	83 e5 0f             	and    $0xf,%ebp
   14000239f:	83 c5 05             	add    $0x5,%ebp
   1400023a2:	83 fd 0f             	cmp    $0xf,%ebp
   1400023a5:	76 0c                	jbe    0x1400023b3
   1400023a7:	48 c7 c0 d4 ff ff ff 	mov    $0xffffffffffffffd4,%rax
   1400023ae:	e9 18 02 00 00       	jmpq   0x1400025cb
   1400023b3:	41 89 2e             	mov    %ebp,(%r14)
   1400023b6:	8b cd                	mov    %ebp,%ecx
   1400023b8:	41 be 01 00 00 00    	mov    $0x1,%r14d
   1400023be:	41 c1 e8 04          	shr    $0x4,%r8d
   1400023c2:	41 d3 e6             	shl    %cl,%r14d
   1400023c5:	ba 04 00 00 00       	mov    $0x4,%edx
   1400023ca:	ff c5                	inc    %ebp
   1400023cc:	45 8d 5e 01          	lea    0x1(%r14),%r11d
   1400023d0:	45 85 ff             	test   %r15d,%r15d
   1400023d3:	0f 84 da 00 00 00    	je     0x1400024b3
   1400023d9:	45 33 ff             	xor    %r15d,%r15d
   1400023dc:	41 8b c0             	mov    %r8d,%eax
   1400023df:	f7 d0                	not    %eax
   1400023e1:	44 89 7c 24 40       	mov    %r15d,0x40(%rsp)
   1400023e6:	0f ba e8 1f          	bts    $0x1f,%eax
   1400023ea:	45 8b cf             	mov    %r15d,%r9d
   1400023ed:	0f bc c8             	bsf    %eax,%ecx
   1400023f0:	44 0f 45 c9          	cmovne %ecx,%r9d
   1400023f4:	41 d1 e9             	shr    %r9d
   1400023f7:	41 83 f9 0c          	cmp    $0xc,%r9d
   1400023fb:	72 4a                	jb     0x140002447
   1400023fd:	4c 8d 57 f9          	lea    -0x7(%rdi),%r10
   140002401:	83 c6 24             	add    $0x24,%esi
   140002404:	49 3b da             	cmp    %r10,%rbx
   140002407:	77 06                	ja     0x14000240f
   140002409:	48 83 c3 03          	add    $0x3,%rbx
   14000240d:	eb 0f                	jmp    0x14000241e
   14000240f:	2b df                	sub    %edi,%ebx
   140002411:	8d 14 da             	lea    (%rdx,%rbx,8),%edx
   140002414:	83 c2 f8             	add    $0xfffffff8,%edx
   140002417:	48 8d 5f fc          	lea    -0x4(%rdi),%rbx
   14000241b:	83 e2 1f             	and    $0x1f,%edx
   14000241e:	44 8b 03             	mov    (%rbx),%r8d
   140002421:	8b ca                	mov    %edx,%ecx
   140002423:	41 d3 e8             	shr    %cl,%r8d
   140002426:	45 8b cf             	mov    %r15d,%r9d
   140002429:	41 8b c0             	mov    %r8d,%eax
   14000242c:	44 89 7c 24 40       	mov    %r15d,0x40(%rsp)
   140002431:	f7 d0                	not    %eax
   140002433:	0f ba e8 1f          	bts    $0x1f,%eax
   140002437:	0f bc c8             	bsf    %eax,%ecx
   14000243a:	44 0f 45 c9          	cmovne %ecx,%r9d
   14000243e:	41 d1 e9             	shr    %r9d
   140002441:	41 83 f9 0c          	cmp    $0xc,%r9d
   140002445:	73 ba                	jae    0x140002401
   140002447:	43 8d 0c 09          	lea    (%r9,%r9,1),%ecx
   14000244b:	83 c2 02             	add    $0x2,%edx
   14000244e:	41 d3 e8             	shr    %cl,%r8d
   140002451:	42 8d 34 4e          	lea    (%rsi,%r9,2),%esi
   140002455:	41 83 e0 03          	and    $0x3,%r8d
   140002459:	41 03 f1             	add    %r9d,%esi
   14000245c:	41 03 f0             	add    %r8d,%esi
   14000245f:	03 d1                	add    %ecx,%edx
   140002461:	41 3b f4             	cmp    %r12d,%esi
   140002464:	0f 83 25 01 00 00    	jae    0x14000258f
   14000246a:	48 8d 47 f9          	lea    -0x7(%rdi),%rax
   14000246e:	48 3b d8             	cmp    %rax,%rbx
   140002471:	76 29                	jbe    0x14000249c
   140002473:	8b c2                	mov    %edx,%eax
   140002475:	4c 8d 47 fc          	lea    -0x4(%rdi),%r8
   140002479:	c1 f8 03             	sar    $0x3,%eax
   14000247c:	48 63 c8             	movslq %eax,%rcx
   14000247f:	48 03 cb             	add    %rbx,%rcx
   140002482:	49 3b c8             	cmp    %r8,%rcx
   140002485:	76 15                	jbe    0x14000249c
   140002487:	2b df                	sub    %edi,%ebx
   140002489:	8d 14 da             	lea    (%rdx,%rbx,8),%edx
   14000248c:	49 8b d8             	mov    %r8,%rbx
   14000248f:	83 e2 1f             	and    $0x1f,%edx
   140002492:	8b ca                	mov    %edx,%ecx
   140002494:	44 8b 03             	mov    (%rbx),%r8d
   140002497:	41 d3 e8             	shr    %cl,%r8d
   14000249a:	eb 1a                	jmp    0x1400024b6
   14000249c:	48 63 c2             	movslq %edx,%rax
   14000249f:	83 e2 07             	and    $0x7,%edx
   1400024a2:	48 c1 f8 03          	sar    $0x3,%rax
   1400024a6:	8b ca                	mov    %edx,%ecx
   1400024a8:	48 03 d8             	add    %rax,%rbx
   1400024ab:	44 8b 03             	mov    (%rbx),%r8d
   1400024ae:	41 d3 e8             	shr    %cl,%r8d
   1400024b1:	eb 03                	jmp    0x1400024b6
   1400024b3:	45 33 ff             	xor    %r15d,%r15d
   1400024b6:	43 8d 0c 36          	lea    (%r14,%r14,1),%ecx
   1400024ba:	44 8b d1             	mov    %ecx,%r10d
   1400024bd:	41 8d 46 ff          	lea    -0x1(%r14),%eax
   1400024c1:	45 2b d3             	sub    %r11d,%r10d
   1400024c4:	41 23 c0             	and    %r8d,%eax
   1400024c7:	41 ff ca             	dec    %r10d
   1400024ca:	41 3b c2             	cmp    %r10d,%eax
   1400024cd:	73 0d                	jae    0x1400024dc
   1400024cf:	45 8d 4e ff          	lea    -0x1(%r14),%r9d
   1400024d3:	ff ca                	dec    %edx
   1400024d5:	45 23 c8             	and    %r8d,%r9d
   1400024d8:	03 d5                	add    %ebp,%edx
   1400024da:	eb 14                	jmp    0x1400024f0
   1400024dc:	ff c9                	dec    %ecx
   1400024de:	03 d5                	add    %ebp,%edx
   1400024e0:	41 23 c8             	and    %r8d,%ecx
   1400024e3:	44 8b c9             	mov    %ecx,%r9d
   1400024e6:	45 2b ca             	sub    %r10d,%r9d
   1400024e9:	41 3b ce             	cmp    %r14d,%ecx
   1400024ec:	44 0f 4c c9          	cmovl  %ecx,%r9d
   1400024f0:	41 ff c9             	dec    %r9d
   1400024f3:	66 45 89 4c 75 00    	mov    %r9w,0x0(%r13,%rsi,2)
   1400024f9:	43 8d 04 0b          	lea    (%r11,%r9,1),%eax
   1400024fd:	45 2b d9             	sub    %r9d,%r11d
   140002500:	45 85 c9             	test   %r9d,%r9d
   140002503:	44 0f 48 d8          	cmovs  %eax,%r11d
   140002507:	ff c6                	inc    %esi
   140002509:	45 85 c9             	test   %r9d,%r9d
   14000250c:	41 0f 94 c7          	sete   %r15b
   140002510:	45 3b de             	cmp    %r14d,%r11d
   140002513:	7d 26                	jge    0x14000253b
   140002515:	41 83 fb 01          	cmp    $0x1,%r11d
   140002519:	7e 78                	jle    0x140002593
   14000251b:	41 0f bd c3          	bsr    %r11d,%eax
   14000251f:	b9 00 00 00 00       	mov    $0x0,%ecx
   140002524:	c7 44 24 40 00 00 00 	movl   $0x0,0x40(%rsp)
   14000252b:	00 
   14000252c:	41 be 01 00 00 00    	mov    $0x1,%r14d
   140002532:	0f 45 c8             	cmovne %eax,%ecx
   140002535:	41 d3 e6             	shl    %cl,%r14d
   140002538:	8d 69 01             	lea    0x1(%rcx),%ebp
   14000253b:	41 3b f4             	cmp    %r12d,%esi
   14000253e:	73 4f                	jae    0x14000258f
   140002540:	48 8d 47 f9          	lea    -0x7(%rdi),%rax
   140002544:	48 3b d8             	cmp    %rax,%rbx
   140002547:	76 2c                	jbe    0x140002575
   140002549:	8b c2                	mov    %edx,%eax
   14000254b:	4c 8d 47 fc          	lea    -0x4(%rdi),%r8
   14000254f:	c1 f8 03             	sar    $0x3,%eax
   140002552:	48 63 c8             	movslq %eax,%rcx
   140002555:	48 03 cb             	add    %rbx,%rcx
   140002558:	49 3b c8             	cmp    %r8,%rcx
   14000255b:	76 18                	jbe    0x140002575
   14000255d:	2b df                	sub    %edi,%ebx
   14000255f:	8d 14 da             	lea    (%rdx,%rbx,8),%edx
   140002562:	49 8b d8             	mov    %r8,%rbx
   140002565:	83 e2 1f             	and    $0x1f,%edx
   140002568:	8b ca                	mov    %edx,%ecx
   14000256a:	44 8b 03             	mov    (%rbx),%r8d
   14000256d:	41 d3 e8             	shr    %cl,%r8d
   140002570:	e9 5b fe ff ff       	jmpq   0x1400023d0
   140002575:	48 63 c2             	movslq %edx,%rax
   140002578:	83 e2 07             	and    $0x7,%edx
   14000257b:	48 c1 f8 03          	sar    $0x3,%rax
   14000257f:	8b ca                	mov    %edx,%ecx
   140002581:	48 03 d8             	add    %rax,%rbx
   140002584:	44 8b 03             	mov    (%rbx),%r8d
   140002587:	41 d3 e8             	shr    %cl,%r8d
   14000258a:	e9 41 fe ff ff       	jmpq   0x1400023d0
   14000258f:	41 83 fb 01          	cmp    $0x1,%r11d
   140002593:	74 09                	je     0x14000259e
   140002595:	48 c7 c0 ec ff ff ff 	mov    $0xffffffffffffffec,%rax
   14000259c:	eb 2d                	jmp    0x1400025cb
   14000259e:	41 3b f4             	cmp    %r12d,%esi
   1400025a1:	76 09                	jbe    0x1400025ac
   1400025a3:	48 c7 c0 d0 ff ff ff 	mov    $0xffffffffffffffd0,%rax
   1400025aa:	eb 1f                	jmp    0x1400025cb
   1400025ac:	83 fa 20             	cmp    $0x20,%edx
   1400025af:	7f e4                	jg     0x140002595
   1400025b1:	48 8b 4c 24 30       	mov    0x30(%rsp),%rcx
   1400025b6:	8d 46 ff             	lea    -0x1(%rsi),%eax
   1400025b9:	89 01                	mov    %eax,(%rcx)
   1400025bb:	8d 42 07             	lea    0x7(%rdx),%eax
   1400025be:	c1 f8 03             	sar    $0x3,%eax
   1400025c1:	48 98                	cltq   
   1400025c3:	48 2b 44 24 38       	sub    0x38(%rsp),%rax
   1400025c8:	48 03 c3             	add    %rbx,%rax
   1400025cb:	48 8b 4c 24 48       	mov    0x48(%rsp),%rcx
   1400025d0:	48 33 cc             	xor    %rsp,%rcx
   1400025d3:	e8 e8 9e 00 00       	callq  0x14000c4c0
   1400025d8:	48 83 c4 58          	add    $0x58,%rsp
   1400025dc:	41 5f                	pop    %r15
   1400025de:	41 5e                	pop    %r14
   1400025e0:	41 5d                	pop    %r13
   1400025e2:	41 5c                	pop    %r12
   1400025e4:	5f                   	pop    %rdi
   1400025e5:	5e                   	pop    %rsi
   1400025e6:	5d                   	pop    %rbp
   1400025e7:	5b                   	pop    %rbx
   1400025e8:	c3                   	retq   
   1400025e9:	cc                   	int3   
   1400025ea:	cc                   	int3   
   1400025eb:	cc                   	int3   
   1400025ec:	cc                   	int3   
   1400025ed:	cc                   	int3   
   1400025ee:	cc                   	int3   
   1400025ef:	cc                   	int3   
   1400025f0:	40 53                	rex push %rbx
   1400025f2:	57                   	push   %rdi
   1400025f3:	41 56                	push   %r14
   1400025f5:	48 83 ec 40          	sub    $0x40,%rsp
   1400025f9:	48 8b 94 24 90 00 00 	mov    0x90(%rsp),%rdx
   140002600:	00 
   140002601:	4d 8b f1             	mov    %r9,%r14
   140002604:	49 8b d8             	mov    %r8,%rbx
   140002607:	48 8b f9             	mov    %rcx,%rdi
   14000260a:	48 85 d2             	test   %rdx,%rdx
   14000260d:	75 0d                	jne    0x14000261c
   14000260f:	48 8d 42 b8          	lea    -0x48(%rdx),%rax
   140002613:	48 83 c4 40          	add    $0x40,%rsp
   140002617:	41 5e                	pop    %r14
   140002619:	5f                   	pop    %rdi
   14000261a:	5b                   	pop    %rbx
   14000261b:	c3                   	retq   
   14000261c:	4c 8b 84 24 88 00 00 	mov    0x88(%rsp),%r8
   140002623:	00 
   140002624:	48 89 6c 24 60       	mov    %rbp,0x60(%rsp)
   140002629:	48 89 74 24 70       	mov    %rsi,0x70(%rsp)
   14000262e:	33 f6                	xor    %esi,%esi
   140002630:	45 0f b6 08          	movzbl (%r8),%r9d
   140002634:	49 81 f9 80 00 00 00 	cmp    $0x80,%r9
   14000263b:	72 64                	jb     0x1400026a1
   14000263d:	49 8d 41 81          	lea    -0x7f(%r9),%rax
   140002641:	48 8d 68 01          	lea    0x1(%rax),%rbp
   140002645:	48 d1 ed             	shr    %rbp
   140002648:	48 ff c5             	inc    %rbp
   14000264b:	48 3b ea             	cmp    %rdx,%rbp
   14000264e:	77 5a                	ja     0x1400026aa
   140002650:	48 3d 00 01 00 00    	cmp    $0x100,%rax
   140002656:	0f 83 4b 01 00 00    	jae    0x1400027a7
   14000265c:	4d 8d 50 01          	lea    0x1(%r8),%r10
   140002660:	44 8b ce             	mov    %esi,%r9d
   140002663:	48 85 c0             	test   %rax,%rax
   140002666:	74 6d                	je     0x1400026d5
   140002668:	44 8b c6             	mov    %esi,%r8d
   14000266b:	0f 1f 44 00 00       	nopl   0x0(%rax,%rax,1)
   140002670:	49 8b d0             	mov    %r8,%rdx
   140002673:	48 d1 ea             	shr    %rdx
   140002676:	42 0f b6 0c 12       	movzbl (%rdx,%r10,1),%ecx
   14000267b:	c0 e9 04             	shr    $0x4,%cl
   14000267e:	41 88 0c 38          	mov    %cl,(%r8,%rdi,1)
   140002682:	41 8d 49 01          	lea    0x1(%r9),%ecx
   140002686:	46 0f b6 04 12       	movzbl (%rdx,%r10,1),%r8d
   14000268b:	41 83 c1 02          	add    $0x2,%r9d
   14000268f:	41 80 e0 0f          	and    $0xf,%r8b
   140002693:	44 88 04 39          	mov    %r8b,(%rcx,%rdi,1)
   140002697:	45 8b c1             	mov    %r9d,%r8d
   14000269a:	4c 3b c0             	cmp    %rax,%r8
   14000269d:	72 d1                	jb     0x140002670
   14000269f:	eb 34                	jmp    0x1400026d5
   1400026a1:	49 8d 69 01          	lea    0x1(%r9),%rbp
   1400026a5:	48 3b ea             	cmp    %rdx,%rbp
   1400026a8:	76 0c                	jbe    0x1400026b6
   1400026aa:	48 c7 c0 b8 ff ff ff 	mov    $0xffffffffffffffb8,%rax
   1400026b1:	e9 f8 00 00 00       	jmpq   0x1400027ae
   1400026b6:	48 8b 84 24 98 00 00 	mov    0x98(%rsp),%rax
   1400026bd:	00 
   1400026be:	49 ff c0             	inc    %r8
   1400026c1:	48 89 44 24 28       	mov    %rax,0x28(%rsp)
   1400026c6:	e8 85 ee ff ff       	callq  0x140001550
   1400026cb:	48 83 f8 88          	cmp    $0xffffffffffffff88,%rax
   1400026cf:	0f 87 d9 00 00 00    	ja     0x1400027ae
   1400026d5:	33 c9                	xor    %ecx,%ecx
   1400026d7:	44 8b d6             	mov    %esi,%r10d
   1400026da:	48 89 0b             	mov    %rcx,(%rbx)
   1400026dd:	44 8b ce             	mov    %esi,%r9d
   1400026e0:	48 89 4b 08          	mov    %rcx,0x8(%rbx)
   1400026e4:	48 89 4b 10          	mov    %rcx,0x10(%rbx)
   1400026e8:	48 89 4b 18          	mov    %rcx,0x18(%rbx)
   1400026ec:	48 89 4b 20          	mov    %rcx,0x20(%rbx)
   1400026f0:	48 89 4b 28          	mov    %rcx,0x28(%rbx)
   1400026f4:	89 4b 30             	mov    %ecx,0x30(%rbx)
   1400026f7:	48 85 c0             	test   %rax,%rax
   1400026fa:	0f 84 a7 00 00 00    	je     0x1400027a7
   140002700:	4c 8b c6             	mov    %rsi,%r8
   140002703:	44 8d 59 01          	lea    0x1(%rcx),%r11d
   140002707:	66 0f 1f 84 00 00 00 	nopw   0x0(%rax,%rax,1)
   14000270e:	00 00 
   140002710:	41 0f b6 0c 38       	movzbl (%r8,%rdi,1),%ecx
   140002715:	80 f9 0c             	cmp    $0xc,%cl
   140002718:	0f 83 89 00 00 00    	jae    0x1400027a7
   14000271e:	0f b6 d1             	movzbl %cl,%edx
   140002721:	41 ff c1             	inc    %r9d
   140002724:	ff 04 93             	incl   (%rbx,%rdx,4)
   140002727:	41 8b d3             	mov    %r11d,%edx
   14000272a:	41 0f b6 0c 38       	movzbl (%r8,%rdi,1),%ecx
   14000272f:	d3 e2                	shl    %cl,%edx
   140002731:	d1 fa                	sar    %edx
   140002733:	44 03 d2             	add    %edx,%r10d
   140002736:	45 8b c1             	mov    %r9d,%r8d
   140002739:	4c 3b c0             	cmp    %rax,%r8
   14000273c:	72 d2                	jb     0x140002710
   14000273e:	45 85 d2             	test   %r10d,%r10d
   140002741:	74 64                	je     0x1400027a7
   140002743:	41 0f bd ca          	bsr    %r10d,%ecx
   140002747:	44 8b c6             	mov    %esi,%r8d
   14000274a:	44 0f 45 c1          	cmovne %ecx,%r8d
   14000274e:	41 ff c0             	inc    %r8d
   140002751:	41 83 f8 0c          	cmp    $0xc,%r8d
   140002755:	77 50                	ja     0x1400027a7
   140002757:	48 8b 94 24 80 00 00 	mov    0x80(%rsp),%rdx
   14000275e:	00 
   14000275f:	41 8b c8             	mov    %r8d,%ecx
   140002762:	44 89 02             	mov    %r8d,(%rdx)
   140002765:	45 8b c3             	mov    %r11d,%r8d
   140002768:	41 d3 e0             	shl    %cl,%r8d
   14000276b:	8b ce                	mov    %esi,%ecx
   14000276d:	45 2b c2             	sub    %r10d,%r8d
   140002770:	41 0f bd d0          	bsr    %r8d,%edx
   140002774:	0f 45 ca             	cmovne %edx,%ecx
   140002777:	41 d3 e3             	shl    %cl,%r11d
   14000277a:	41 0f bd c8          	bsr    %r8d,%ecx
   14000277e:	0f 45 f1             	cmovne %ecx,%esi
   140002781:	ff c6                	inc    %esi
   140002783:	45 3b d8             	cmp    %r8d,%r11d
   140002786:	75 1f                	jne    0x1400027a7
   140002788:	40 88 34 38          	mov    %sil,(%rax,%rdi,1)
   14000278c:	ff 04 b3             	incl   (%rbx,%rsi,4)
   14000278f:	8b 4b 04             	mov    0x4(%rbx),%ecx
   140002792:	83 f9 02             	cmp    $0x2,%ecx
   140002795:	72 10                	jb     0x1400027a7
   140002797:	f6 c1 01             	test   $0x1,%cl
   14000279a:	75 0b                	jne    0x1400027a7
   14000279c:	8d 48 01             	lea    0x1(%rax),%ecx
   14000279f:	48 8b c5             	mov    %rbp,%rax
   1400027a2:	41 89 0e             	mov    %ecx,(%r14)
   1400027a5:	eb 07                	jmp    0x1400027ae
   1400027a7:	48 c7 c0 ec ff ff ff 	mov    $0xffffffffffffffec,%rax
   1400027ae:	48 8b 6c 24 60       	mov    0x60(%rsp),%rbp
   1400027b3:	48 8b 74 24 70       	mov    0x70(%rsp),%rsi
   1400027b8:	48 83 c4 40          	add    $0x40,%rsp
   1400027bc:	41 5e                	pop    %r14
   1400027be:	5f                   	pop    %rdi
   1400027bf:	5b                   	pop    %rbx
   1400027c0:	c3                   	retq   
   1400027c1:	cc                   	int3   
   1400027c2:	cc                   	int3   
   1400027c3:	cc                   	int3   
   1400027c4:	cc                   	int3   
   1400027c5:	cc                   	int3   
   1400027c6:	cc                   	int3   
   1400027c7:	cc                   	int3   
   1400027c8:	cc                   	int3   
   1400027c9:	cc                   	int3   
   1400027ca:	cc                   	int3   
   1400027cb:	cc                   	int3   
   1400027cc:	cc                   	int3   
   1400027cd:	cc                   	int3   
   1400027ce:	cc                   	int3   
   1400027cf:	cc                   	int3   
   1400027d0:	4c 8b dc             	mov    %rsp,%r11
   1400027d3:	4d 89 4b 20          	mov    %r9,0x20(%r11)
   1400027d7:	53                   	push   %rbx
   1400027d8:	56                   	push   %rsi
   1400027d9:	57                   	push   %rdi
   1400027da:	41 56                	push   %r14
   1400027dc:	41 57                	push   %r15
   1400027de:	48 81 ec 80 00 00 00 	sub    $0x80,%rsp
   1400027e5:	48 8d 41 04          	lea    0x4(%rcx),%rax
   1400027e9:	49 8b f9             	mov    %r9,%rdi
   1400027ec:	48 89 44 24 58       	mov    %rax,0x58(%rsp)
   1400027f1:	49 8d 99 e4 02 00 00 	lea    0x2e4(%r9),%rbx
   1400027f8:	49 8d 81 80 00 00 00 	lea    0x80(%r9),%rax
   1400027ff:	48 8b f1             	mov    %rcx,%rsi
   140002802:	49 89 43 90          	mov    %rax,-0x70(%r11)
   140002806:	4d 8d 4b 08          	lea    0x8(%r11),%r9
   14000280a:	4d 89 43 88          	mov    %r8,-0x78(%r11)
   14000280e:	49 8d 43 28          	lea    0x28(%r11),%rax
   140002812:	45 33 ff             	xor    %r15d,%r15d
   140002815:	49 89 53 80          	mov    %rdx,-0x80(%r11)
   140002819:	4c 8b c7             	mov    %rdi,%r8
   14000281c:	48 89 44 24 20       	mov    %rax,0x20(%rsp)
   140002821:	48 8b cb             	mov    %rbx,%rcx
   140002824:	45 89 7b 28          	mov    %r15d,0x28(%r11)
   140002828:	45 89 7b 08          	mov    %r15d,0x8(%r11)
   14000282c:	e8 bf fd ff ff       	callq  0x1400025f0
   140002831:	48 89 44 24 60       	mov    %rax,0x60(%rsp)
   140002836:	4c 8b f0             	mov    %rax,%r14
   140002839:	48 83 f8 88          	cmp    $0xffffffffffffff88,%rax
   14000283d:	0f 87 58 02 00 00    	ja     0x140002a9b
   140002843:	8b 0e                	mov    (%rsi),%ecx
   140002845:	0f b6 d1             	movzbl %cl,%edx
   140002848:	ff c2                	inc    %edx
   14000284a:	89 8c 24 d8 00 00 00 	mov    %ecx,0xd8(%rsp)
   140002851:	8b 8c 24 d0 00 00 00 	mov    0xd0(%rsp),%ecx
   140002858:	3b ca                	cmp    %edx,%ecx
   14000285a:	76 13                	jbe    0x14000286f
   14000285c:	49 8d 47 d4          	lea    -0x2c(%r15),%rax
   140002860:	48 81 c4 80 00 00 00 	add    $0x80,%rsp
   140002867:	41 5f                	pop    %r15
   140002869:	41 5e                	pop    %r14
   14000286b:	5f                   	pop    %rdi
   14000286c:	5e                   	pop    %rsi
   14000286d:	5b                   	pop    %rbx
   14000286e:	c3                   	retq   
   14000286f:	44 8b 94 24 b0 00 00 	mov    0xb0(%rsp),%r10d
   140002876:	00 
   140002877:	41 8b d7             	mov    %r15d,%edx
   14000287a:	48 89 ac 24 b8 00 00 	mov    %rbp,0xb8(%rsp)
   140002881:	00 
   140002882:	8d 69 01             	lea    0x1(%rcx),%ebp
   140002885:	44 88 bc 24 d9 00 00 	mov    %r15b,0xd9(%rsp)
   14000288c:	00 
   14000288d:	88 8c 24 da 00 00 00 	mov    %cl,0xda(%rsp)
   140002894:	8b 84 24 d8 00 00 00 	mov    0xd8(%rsp),%eax
   14000289b:	45 8d 5a fd          	lea    -0x3(%r10),%r11d
   14000289f:	4c 89 6c 24 70       	mov    %r13,0x70(%rsp)
   1400028a4:	89 06                	mov    %eax,(%rsi)
   1400028a6:	85 ed                	test   %ebp,%ebp
   1400028a8:	7e 17                	jle    0x1400028c1
   1400028aa:	48 8b cf             	mov    %rdi,%rcx
   1400028ad:	44 8b c5             	mov    %ebp,%r8d
   1400028b0:	8b c2                	mov    %edx,%eax
   1400028b2:	03 11                	add    (%rcx),%edx
   1400028b4:	89 41 40             	mov    %eax,0x40(%rcx)
   1400028b7:	48 8d 49 04          	lea    0x4(%rcx),%rcx
   1400028bb:	49 83 e8 01          	sub    $0x1,%r8
   1400028bf:	75 ef                	jne    0x1400028b0
   1400028c1:	45 8b cf             	mov    %r15d,%r9d
   1400028c4:	45 85 db             	test   %r11d,%r11d
   1400028c7:	7e 38                	jle    0x140002901
   1400028c9:	0f 1f 80 00 00 00 00 	nopl   0x0(%rax)
   1400028d0:	45 8b c7             	mov    %r15d,%r8d
   1400028d3:	0f b6 03             	movzbl (%rbx),%eax
   1400028d6:	43 8d 0c 01          	lea    (%r9,%r8,1),%ecx
   1400028da:	41 ff c0             	inc    %r8d
   1400028dd:	48 ff c3             	inc    %rbx
   1400028e0:	48 8d 14 87          	lea    (%rdi,%rax,4),%rdx
   1400028e4:	8b 44 87 40          	mov    0x40(%rdi,%rax,4),%eax
   1400028e8:	88 8c 38 e4 01 00 00 	mov    %cl,0x1e4(%rax,%rdi,1)
   1400028ef:	ff 42 40             	incl   0x40(%rdx)
   1400028f2:	41 83 f8 04          	cmp    $0x4,%r8d
   1400028f6:	7c db                	jl     0x1400028d3
   1400028f8:	41 83 c1 04          	add    $0x4,%r9d
   1400028fc:	45 3b cb             	cmp    %r11d,%r9d
   1400028ff:	7c cf                	jl     0x1400028d0
   140002901:	45 3b ca             	cmp    %r10d,%r9d
   140002904:	7d 3c                	jge    0x140002942
   140002906:	49 63 c1             	movslq %r9d,%rax
   140002909:	48 8d 97 e4 02 00 00 	lea    0x2e4(%rdi),%rdx
   140002910:	48 03 d0             	add    %rax,%rdx
   140002913:	0f 1f 40 00          	nopl   0x0(%rax)
   140002917:	66 0f 1f 84 00 00 00 	nopw   0x0(%rax,%rax,1)
   14000291e:	00 00 
   140002920:	0f b6 02             	movzbl (%rdx),%eax
   140002923:	48 8d 52 01          	lea    0x1(%rdx),%rdx
   140002927:	48 8d 0c 87          	lea    (%rdi,%rax,4),%rcx
   14000292b:	8b 44 87 40          	mov    0x40(%rdi,%rax,4),%eax
   14000292f:	44 88 8c 38 e4 01 00 	mov    %r9b,0x1e4(%rax,%rdi,1)
   140002936:	00 
   140002937:	41 ff c1             	inc    %r9d
   14000293a:	ff 41 40             	incl   0x40(%rcx)
   14000293d:	45 3b ca             	cmp    %r10d,%r9d
   140002940:	7c de                	jl     0x140002920
   140002942:	44 8b 2f             	mov    (%rdi),%r13d
   140002945:	33 c0                	xor    %eax,%eax
   140002947:	41 bf 01 00 00 00    	mov    $0x1,%r15d
   14000294d:	89 44 24 50          	mov    %eax,0x50(%rsp)
   140002951:	41 3b ef             	cmp    %r15d,%ebp
   140002954:	0f 86 34 01 00 00    	jbe    0x140002a8e
   14000295a:	4c 89 64 24 78       	mov    %r12,0x78(%rsp)
   14000295f:	48 be 01 00 01 00 01 	movabs $0x1000100010001,%rsi
   140002966:	00 01 00 
   140002969:	4c 8d 67 04          	lea    0x4(%rdi),%r12
   14000296d:	0f 1f 00             	nopl   (%rax)
   140002970:	0f b6 9c 24 d0 00 00 	movzbl 0xd0(%rsp),%ebx
   140002977:	00 
   140002978:	41 8b cf             	mov    %r15d,%ecx
   14000297b:	49 63 2c 24          	movslq (%r12),%rbp
   14000297f:	41 2a df             	sub    %r15b,%bl
   140002982:	41 be 01 00 00 00    	mov    $0x1,%r14d
   140002988:	4d 63 d5             	movslq %r13d,%r10
   14000298b:	41 d3 e6             	shl    %cl,%r14d
   14000298e:	fe c3                	inc    %bl
   140002990:	41 d1 fe             	sar    %r14d
   140002993:	4c 8b c5             	mov    %rbp,%r8
   140002996:	41 8b ce             	mov    %r14d,%ecx
   140002999:	4c 63 d8             	movslq %eax,%r11
   14000299c:	83 e9 01             	sub    $0x1,%ecx
   14000299f:	0f 84 ec 01 00 00    	je     0x140002b91
   1400029a5:	83 e9 01             	sub    $0x1,%ecx
   1400029a8:	0f 84 8e 01 00 00    	je     0x140002b3c
   1400029ae:	83 e9 02             	sub    $0x2,%ecx
   1400029b1:	0f 84 39 01 00 00    	je     0x140002af0
   1400029b7:	83 f9 04             	cmp    $0x4,%ecx
   1400029ba:	0f 84 ed 00 00 00    	je     0x140002aad
   1400029c0:	49 63 f6             	movslq %r14d,%rsi
   1400029c3:	85 ed                	test   %ebp,%ebp
   1400029c5:	0f 8e 84 00 00 00    	jle    0x140002a4f
   1400029cb:	48 8b 44 24 58       	mov    0x58(%rsp),%rax
   1400029d0:	48 8d 2c 36          	lea    (%rsi,%rsi,1),%rbp
   1400029d4:	48 83 c0 08          	add    $0x8,%rax
   1400029d8:	45 33 c9             	xor    %r9d,%r9d
   1400029db:	4c 03 d7             	add    %rdi,%r10
   1400029de:	48 bf 01 00 01 00 01 	movabs $0x1000100010001,%rdi
   1400029e5:	00 01 00 
   1400029e8:	4e 8d 1c 58          	lea    (%rax,%r11,2),%r11
   1400029ec:	0f 1f 40 00          	nopl   0x0(%rax)
   1400029f0:	43 0f b6 8c 11 e4 01 	movzbl 0x1e4(%r9,%r10,1),%ecx
   1400029f7:	00 00 
   1400029f9:	0f b6 c3             	movzbl %bl,%eax
   1400029fc:	48 c1 e0 08          	shl    $0x8,%rax
   140002a00:	48 03 c8             	add    %rax,%rcx
   140002a03:	48 0f af cf          	imul   %rdi,%rcx
   140002a07:	45 85 f6             	test   %r14d,%r14d
   140002a0a:	7e 2d                	jle    0x140002a39
   140002a0c:	48 8d 56 ff          	lea    -0x1(%rsi),%rdx
   140002a10:	49 8b c3             	mov    %r11,%rax
   140002a13:	48 c1 ea 04          	shr    $0x4,%rdx
   140002a17:	48 ff c2             	inc    %rdx
   140002a1a:	66 0f 1f 44 00 00    	nopw   0x0(%rax,%rax,1)
   140002a20:	48 89 48 f8          	mov    %rcx,-0x8(%rax)
   140002a24:	48 89 08             	mov    %rcx,(%rax)
   140002a27:	48 89 48 08          	mov    %rcx,0x8(%rax)
   140002a2b:	48 89 48 10          	mov    %rcx,0x10(%rax)
   140002a2f:	48 8d 40 20          	lea    0x20(%rax),%rax
   140002a33:	48 83 ea 01          	sub    $0x1,%rdx
   140002a37:	75 e7                	jne    0x140002a20
   140002a39:	4c 03 dd             	add    %rbp,%r11
   140002a3c:	49 ff c1             	inc    %r9
   140002a3f:	4d 3b c8             	cmp    %r8,%r9
   140002a42:	7c ac                	jl     0x1400029f0
   140002a44:	48 8b bc 24 c8 00 00 	mov    0xc8(%rsp),%rdi
   140002a4b:	00 
   140002a4c:	41 8b e8             	mov    %r8d,%ebp
   140002a4f:	48 be 01 00 01 00 01 	movabs $0x1000100010001,%rsi
   140002a56:	00 01 00 
   140002a59:	8b 44 24 50          	mov    0x50(%rsp),%eax
   140002a5d:	44 03 ed             	add    %ebp,%r13d
   140002a60:	8b 8c 24 d0 00 00 00 	mov    0xd0(%rsp),%ecx
   140002a67:	41 ff c7             	inc    %r15d
   140002a6a:	44 0f af f5          	imul   %ebp,%r14d
   140002a6e:	49 83 c4 04          	add    $0x4,%r12
   140002a72:	ff c1                	inc    %ecx
   140002a74:	41 03 c6             	add    %r14d,%eax
   140002a77:	89 44 24 50          	mov    %eax,0x50(%rsp)
   140002a7b:	44 3b f9             	cmp    %ecx,%r15d
   140002a7e:	0f 82 ec fe ff ff    	jb     0x140002970
   140002a84:	4c 8b 74 24 60       	mov    0x60(%rsp),%r14
   140002a89:	4c 8b 64 24 78       	mov    0x78(%rsp),%r12
   140002a8e:	48 8b ac 24 b8 00 00 	mov    0xb8(%rsp),%rbp
   140002a95:	00 
   140002a96:	4c 8b 6c 24 70       	mov    0x70(%rsp),%r13
   140002a9b:	49 8b c6             	mov    %r14,%rax
   140002a9e:	48 81 c4 80 00 00 00 	add    $0x80,%rsp
   140002aa5:	41 5f                	pop    %r15
   140002aa7:	41 5e                	pop    %r14
   140002aa9:	5f                   	pop    %rdi
   140002aaa:	5e                   	pop    %rsi
   140002aab:	5b                   	pop    %rbx
   140002aac:	c3                   	retq   
   140002aad:	85 ed                	test   %ebp,%ebp
   140002aaf:	7e a8                	jle    0x140002a59
   140002ab1:	48 8b 44 24 58       	mov    0x58(%rsp),%rax
   140002ab6:	33 d2                	xor    %edx,%edx
   140002ab8:	4c 03 d7             	add    %rdi,%r10
   140002abb:	4e 8d 0c 58          	lea    (%rax,%r11,2),%r9
   140002abf:	90                   	nop
   140002ac0:	42 0f b6 8c 12 e4 01 	movzbl 0x1e4(%rdx,%r10,1),%ecx
   140002ac7:	00 00 
   140002ac9:	4d 8d 49 10          	lea    0x10(%r9),%r9
   140002acd:	0f b6 c3             	movzbl %bl,%eax
   140002ad0:	48 ff c2             	inc    %rdx
   140002ad3:	48 c1 e0 08          	shl    $0x8,%rax
   140002ad7:	48 03 c8             	add    %rax,%rcx
   140002ada:	48 0f af ce          	imul   %rsi,%rcx
   140002ade:	49 89 49 f0          	mov    %rcx,-0x10(%r9)
   140002ae2:	49 89 49 f8          	mov    %rcx,-0x8(%r9)
   140002ae6:	49 3b d0             	cmp    %r8,%rdx
   140002ae9:	7c d5                	jl     0x140002ac0
   140002aeb:	e9 69 ff ff ff       	jmpq   0x140002a59
   140002af0:	85 ed                	test   %ebp,%ebp
   140002af2:	0f 8e 61 ff ff ff    	jle    0x140002a59
   140002af8:	48 8b 44 24 58       	mov    0x58(%rsp),%rax
   140002afd:	33 d2                	xor    %edx,%edx
   140002aff:	4c 03 d7             	add    %rdi,%r10
   140002b02:	4e 8d 0c 58          	lea    (%rax,%r11,2),%r9
   140002b06:	66 66 0f 1f 84 00 00 	data16 nopw 0x0(%rax,%rax,1)
   140002b0d:	00 00 00 
   140002b10:	42 0f b6 8c 12 e4 01 	movzbl 0x1e4(%rdx,%r10,1),%ecx
   140002b17:	00 00 
   140002b19:	4d 8d 49 08          	lea    0x8(%r9),%r9
   140002b1d:	0f b6 c3             	movzbl %bl,%eax
   140002b20:	48 ff c2             	inc    %rdx
   140002b23:	48 c1 e0 08          	shl    $0x8,%rax
   140002b27:	48 03 c8             	add    %rax,%rcx
   140002b2a:	48 0f af ce          	imul   %rsi,%rcx
   140002b2e:	49 89 49 f8          	mov    %rcx,-0x8(%r9)
   140002b32:	49 3b d0             	cmp    %r8,%rdx
   140002b35:	7c d9                	jl     0x140002b10
   140002b37:	e9 1d ff ff ff       	jmpq   0x140002a59
   140002b3c:	85 ed                	test   %ebp,%ebp
   140002b3e:	0f 8e 15 ff ff ff    	jle    0x140002a59
   140002b44:	48 8b 44 24 58       	mov    0x58(%rsp),%rax
   140002b49:	4d 8d 0c 3a          	lea    (%r10,%rdi,1),%r9
   140002b4d:	33 c9                	xor    %ecx,%ecx
   140002b4f:	88 9c 24 d9 00 00 00 	mov    %bl,0xd9(%rsp)
   140002b56:	4a 8d 14 58          	lea    (%rax,%r11,2),%rdx
   140002b5a:	66 0f 1f 44 00 00    	nopw   0x0(%rax,%rax,1)
   140002b60:	42 0f b6 84 09 e4 01 	movzbl 0x1e4(%rcx,%r9,1),%eax
   140002b67:	00 00 
   140002b69:	48 8d 52 04          	lea    0x4(%rdx),%rdx
   140002b6d:	88 84 24 d8 00 00 00 	mov    %al,0xd8(%rsp)
   140002b74:	48 ff c1             	inc    %rcx
   140002b77:	0f b7 84 24 d8 00 00 	movzwl 0xd8(%rsp),%eax
   140002b7e:	00 
   140002b7f:	66 89 42 fc          	mov    %ax,-0x4(%rdx)
   140002b83:	66 89 42 fe          	mov    %ax,-0x2(%rdx)
   140002b87:	49 3b c8             	cmp    %r8,%rcx
   140002b8a:	7c d4                	jl     0x140002b60
   140002b8c:	e9 c8 fe ff ff       	jmpq   0x140002a59
   140002b91:	85 ed                	test   %ebp,%ebp
   140002b93:	0f 8e c0 fe ff ff    	jle    0x140002a59
   140002b99:	48 8b 44 24 58       	mov    0x58(%rsp),%rax
   140002b9e:	4d 8d 0c 3a          	lea    (%r10,%rdi,1),%r9
   140002ba2:	33 c9                	xor    %ecx,%ecx
   140002ba4:	88 9c 24 b1 00 00 00 	mov    %bl,0xb1(%rsp)
   140002bab:	4a 8d 14 58          	lea    (%rax,%r11,2),%rdx
   140002baf:	90                   	nop
   140002bb0:	42 0f b6 84 09 e4 01 	movzbl 0x1e4(%rcx,%r9,1),%eax
   140002bb7:	00 00 
   140002bb9:	48 8d 52 02          	lea    0x2(%rdx),%rdx
   140002bbd:	88 84 24 b0 00 00 00 	mov    %al,0xb0(%rsp)
   140002bc4:	48 ff c1             	inc    %rcx
   140002bc7:	0f b7 84 24 b0 00 00 	movzwl 0xb0(%rsp),%eax
   140002bce:	00 
   140002bcf:	66 89 42 fe          	mov    %ax,-0x2(%rdx)
   140002bd3:	49 3b c8             	cmp    %r8,%rcx
   140002bd6:	7c d8                	jl     0x140002bb0
   140002bd8:	e9 7c fe ff ff       	jmpq   0x140002a59
   140002bdd:	cc                   	int3   
   140002bde:	cc                   	int3   
   140002bdf:	cc                   	int3   
   140002be0:	48 89 54 24 10       	mov    %rdx,0x10(%rsp)
   140002be5:	53                   	push   %rbx
   140002be6:	56                   	push   %rsi
   140002be7:	57                   	push   %rdi
   140002be8:	41 56                	push   %r14
   140002bea:	48 83 ec 68          	sub    $0x68,%rsp
   140002bee:	48 8b 84 24 b0 00 00 	mov    0xb0(%rsp),%rax
   140002bf5:	00 
   140002bf6:	48 8d 3c 11          	lea    (%rcx,%rdx,1),%rdi
   140002bfa:	4d 8b d0             	mov    %r8,%r10
   140002bfd:	48 89 bc 24 90 00 00 	mov    %rdi,0x90(%rsp)
   140002c04:	00 
   140002c05:	48 8b d9             	mov    %rcx,%rbx
   140002c08:	8b 10                	mov    (%rax),%edx
   140002c0a:	4c 8d 70 04          	lea    0x4(%rax),%r14
   140002c0e:	c1 ea 10             	shr    $0x10,%edx
   140002c11:	0f b6 f2             	movzbl %dl,%esi
   140002c14:	49 83 f9 01          	cmp    $0x1,%r9
   140002c18:	73 11                	jae    0x140002c2b
   140002c1a:	48 c7 c0 b8 ff ff ff 	mov    $0xffffffffffffffb8,%rax
   140002c21:	48 83 c4 68          	add    $0x68,%rsp
   140002c25:	41 5e                	pop    %r14
   140002c27:	5f                   	pop    %rdi
   140002c28:	5e                   	pop    %rsi
   140002c29:	5b                   	pop    %rbx
   140002c2a:	c3                   	retq   
   140002c2b:	4d 8b c1             	mov    %r9,%r8
   140002c2e:	48 8d 4c 24 20       	lea    0x20(%rsp),%rcx
   140002c33:	49 8b d2             	mov    %r10,%rdx
   140002c36:	e8 85 e4 ff ff       	callq  0x1400010c0
   140002c3b:	48 83 f8 88          	cmp    $0xffffffffffffff88,%rax
   140002c3f:	0f 87 db 01 00 00    	ja     0x140002e20
   140002c45:	4c 8b 4c 24 30       	mov    0x30(%rsp),%r9
   140002c4a:	f7 de                	neg    %esi
   140002c4c:	44 8b 44 24 28       	mov    0x28(%rsp),%r8d
   140002c51:	83 e6 3f             	and    $0x3f,%esi
   140002c54:	48 89 ac 24 a0 00 00 	mov    %rbp,0xa0(%rsp)
   140002c5b:	00 
   140002c5c:	45 33 db             	xor    %r11d,%r11d
   140002c5f:	48 8b 6c 24 38       	mov    0x38(%rsp),%rbp
   140002c64:	4c 89 64 24 60       	mov    %r12,0x60(%rsp)
   140002c69:	44 8b e5             	mov    %ebp,%r12d
   140002c6c:	4c 89 6c 24 58       	mov    %r13,0x58(%rsp)
   140002c71:	4c 8d 6f fd          	lea    -0x3(%rdi),%r13
   140002c75:	48 8b 7c 24 20       	mov    0x20(%rsp),%rdi
   140002c7a:	4c 89 7c 24 50       	mov    %r15,0x50(%rsp)
   140002c7f:	4c 8b 7c 24 40       	mov    0x40(%rsp),%r15
   140002c84:	41 83 f8 40          	cmp    $0x40,%r8d
   140002c88:	76 08                	jbe    0x140002c92
   140002c8a:	41 ba 03 00 00 00    	mov    $0x3,%r10d
   140002c90:	eb 60                	jmp    0x140002cf2
   140002c92:	4d 3b cf             	cmp    %r15,%r9
   140002c95:	72 13                	jb     0x140002caa
   140002c97:	41 8b c0             	mov    %r8d,%eax
   140002c9a:	45 8b d3             	mov    %r11d,%r10d
   140002c9d:	48 c1 e8 03          	shr    $0x3,%rax
   140002ca1:	4c 2b c8             	sub    %rax,%r9
   140002ca4:	41 83 e0 07          	and    $0x7,%r8d
   140002ca8:	eb 40                	jmp    0x140002cea
   140002caa:	4c 3b cd             	cmp    %rbp,%r9
   140002cad:	75 0d                	jne    0x140002cbc
   140002caf:	41 83 f8 40          	cmp    $0x40,%r8d
   140002cb3:	45 1b d2             	sbb    %r10d,%r10d
   140002cb6:	41 83 c2 02          	add    $0x2,%r10d
   140002cba:	eb 36                	jmp    0x140002cf2
   140002cbc:	41 8b c0             	mov    %r8d,%eax
   140002cbf:	49 8b d1             	mov    %r9,%rdx
   140002cc2:	c1 e8 03             	shr    $0x3,%eax
   140002cc5:	45 8b d3             	mov    %r11d,%r10d
   140002cc8:	8b c8                	mov    %eax,%ecx
   140002cca:	48 2b d1             	sub    %rcx,%rdx
   140002ccd:	48 3b d5             	cmp    %rbp,%rdx
   140002cd0:	73 0d                	jae    0x140002cdf
   140002cd2:	8b 44 24 30          	mov    0x30(%rsp),%eax
   140002cd6:	41 ba 01 00 00 00    	mov    $0x1,%r10d
   140002cdc:	41 2b c4             	sub    %r12d,%eax
   140002cdf:	8b c8                	mov    %eax,%ecx
   140002ce1:	4c 2b c9             	sub    %rcx,%r9
   140002ce4:	6b c8 f8             	imul   $0xfffffff8,%eax,%ecx
   140002ce7:	44 03 c1             	add    %ecx,%r8d
   140002cea:	49 8b 39             	mov    (%r9),%rdi
   140002ced:	4c 89 4c 24 30       	mov    %r9,0x30(%rsp)
   140002cf2:	49 3b dd             	cmp    %r13,%rbx
   140002cf5:	41 8b cb             	mov    %r11d,%ecx
   140002cf8:	41 8b c3             	mov    %r11d,%eax
   140002cfb:	0f 92 c1             	setb   %cl
   140002cfe:	45 85 d2             	test   %r10d,%r10d
   140002d01:	0f 94 c0             	sete   %al
   140002d04:	85 c8                	test   %ecx,%eax
   140002d06:	0f 84 8f 00 00 00    	je     0x140002d9b
   140002d0c:	41 8b c8             	mov    %r8d,%ecx
   140002d0f:	48 8b d7             	mov    %rdi,%rdx
   140002d12:	83 e1 3f             	and    $0x3f,%ecx
   140002d15:	48 d3 e2             	shl    %cl,%rdx
   140002d18:	8b ce                	mov    %esi,%ecx
   140002d1a:	48 d3 ea             	shr    %cl,%rdx
   140002d1d:	41 0f b6 44 56 01    	movzbl 0x1(%r14,%rdx,2),%eax
   140002d23:	44 03 c0             	add    %eax,%r8d
   140002d26:	41 0f b6 04 56       	movzbl (%r14,%rdx,2),%eax
   140002d2b:	88 03                	mov    %al,(%rbx)
   140002d2d:	41 8b c8             	mov    %r8d,%ecx
   140002d30:	83 e1 3f             	and    $0x3f,%ecx
   140002d33:	48 8b d7             	mov    %rdi,%rdx
   140002d36:	48 d3 e2             	shl    %cl,%rdx
   140002d39:	8b ce                	mov    %esi,%ecx
   140002d3b:	48 d3 ea             	shr    %cl,%rdx
   140002d3e:	41 0f b6 44 56 01    	movzbl 0x1(%r14,%rdx,2),%eax
   140002d44:	44 03 c0             	add    %eax,%r8d
   140002d47:	41 0f b6 04 56       	movzbl (%r14,%rdx,2),%eax
   140002d4c:	88 43 01             	mov    %al,0x1(%rbx)
   140002d4f:	41 8b c8             	mov    %r8d,%ecx
   140002d52:	83 e1 3f             	and    $0x3f,%ecx
   140002d55:	48 8b c7             	mov    %rdi,%rax
   140002d58:	48 d3 e0             	shl    %cl,%rax
   140002d5b:	8b ce                	mov    %esi,%ecx
   140002d5d:	48 d3 e8             	shr    %cl,%rax
   140002d60:	41 0f b6 54 46 01    	movzbl 0x1(%r14,%rax,2),%edx
   140002d66:	41 0f b6 04 46       	movzbl (%r14,%rax,2),%eax
   140002d6b:	41 03 d0             	add    %r8d,%edx
   140002d6e:	88 43 02             	mov    %al,0x2(%rbx)
   140002d71:	8b ca                	mov    %edx,%ecx
   140002d73:	83 e1 3f             	and    $0x3f,%ecx
   140002d76:	48 8b c7             	mov    %rdi,%rax
   140002d79:	48 d3 e0             	shl    %cl,%rax
   140002d7c:	8b ce                	mov    %esi,%ecx
   140002d7e:	48 d3 e8             	shr    %cl,%rax
   140002d81:	45 0f b6 44 46 01    	movzbl 0x1(%r14,%rax,2),%r8d
   140002d87:	41 0f b6 04 46       	movzbl (%r14,%rax,2),%eax
   140002d8c:	44 03 c2             	add    %edx,%r8d
   140002d8f:	88 43 03             	mov    %al,0x3(%rbx)
   140002d92:	48 83 c3 04          	add    $0x4,%rbx
   140002d96:	e9 e9 fe ff ff       	jmpq   0x140002c84
   140002d9b:	4c 8b 94 24 90 00 00 	mov    0x90(%rsp),%r10
   140002da2:	00 
   140002da3:	4c 8b 7c 24 50       	mov    0x50(%rsp),%r15
   140002da8:	4c 2b d3             	sub    %rbx,%r10
   140002dab:	48 3b 9c 24 90 00 00 	cmp    0x90(%rsp),%rbx
   140002db2:	00 
   140002db3:	4c 8b 6c 24 58       	mov    0x58(%rsp),%r13
   140002db8:	4c 8b 64 24 60       	mov    0x60(%rsp),%r12
   140002dbd:	4d 0f 47 d3          	cmova  %r11,%r10
   140002dc1:	4d 85 d2             	test   %r10,%r10
   140002dc4:	74 38                	je     0x140002dfe
   140002dc6:	66 66 0f 1f 84 00 00 	data16 nopw 0x0(%rax,%rax,1)
   140002dcd:	00 00 00 
   140002dd0:	41 8b c8             	mov    %r8d,%ecx
   140002dd3:	48 8d 5b 01          	lea    0x1(%rbx),%rbx
   140002dd7:	83 e1 3f             	and    $0x3f,%ecx
   140002dda:	48 8b d7             	mov    %rdi,%rdx
   140002ddd:	48 d3 e2             	shl    %cl,%rdx
   140002de0:	49 ff c3             	inc    %r11
   140002de3:	8b ce                	mov    %esi,%ecx
   140002de5:	48 d3 ea             	shr    %cl,%rdx
   140002de8:	41 0f b6 44 56 01    	movzbl 0x1(%r14,%rdx,2),%eax
   140002dee:	44 03 c0             	add    %eax,%r8d
   140002df1:	41 0f b6 04 56       	movzbl (%r14,%rdx,2),%eax
   140002df6:	88 43 ff             	mov    %al,-0x1(%rbx)
   140002df9:	4d 3b da             	cmp    %r10,%r11
   140002dfc:	72 d2                	jb     0x140002dd0
   140002dfe:	4c 3b cd             	cmp    %rbp,%r9
   140002e01:	48 8b ac 24 a0 00 00 	mov    0xa0(%rsp),%rbp
   140002e08:	00 
   140002e09:	75 0e                	jne    0x140002e19
   140002e0b:	48 8b 84 24 98 00 00 	mov    0x98(%rsp),%rax
   140002e12:	00 
   140002e13:	41 83 f8 40          	cmp    $0x40,%r8d
   140002e17:	74 07                	je     0x140002e20
   140002e19:	48 c7 c0 ec ff ff ff 	mov    $0xffffffffffffffec,%rax
   140002e20:	48 83 c4 68          	add    $0x68,%rsp
   140002e24:	41 5e                	pop    %r14
   140002e26:	5f                   	pop    %rdi
   140002e27:	5e                   	pop    %rsi
   140002e28:	5b                   	pop    %rbx
   140002e29:	c3                   	retq   
   140002e2a:	cc                   	int3   
   140002e2b:	cc                   	int3   
   140002e2c:	cc                   	int3   
   140002e2d:	cc                   	int3   
   140002e2e:	cc                   	int3   
   140002e2f:	cc                   	int3   
   140002e30:	48 89 54 24 10       	mov    %rdx,0x10(%rsp)
   140002e35:	55                   	push   %rbp
   140002e36:	41 55                	push   %r13
   140002e38:	48 8d 6c 24 a8       	lea    -0x58(%rsp),%rbp
   140002e3d:	48 81 ec 58 01 00 00 	sub    $0x158,%rsp
   140002e44:	4c 8b da             	mov    %rdx,%r11
   140002e47:	4c 8b e9             	mov    %rcx,%r13
   140002e4a:	49 83 f9 0a          	cmp    $0xa,%r9
   140002e4e:	73 12                	jae    0x140002e62
   140002e50:	48 c7 c0 ec ff ff ff 	mov    $0xffffffffffffffec,%rax
   140002e57:	48 81 c4 58 01 00 00 	add    $0x158,%rsp
   140002e5e:	41 5d                	pop    %r13
   140002e60:	5d                   	pop    %rbp
   140002e61:	c3                   	retq   
   140002e62:	48 89 9c 24 70 01 00 	mov    %rbx,0x170(%rsp)
   140002e69:	00 
   140002e6a:	48 8d 04 0a          	lea    (%rdx,%rcx,1),%rax
   140002e6e:	41 0f b7 10          	movzwl (%r8),%edx
   140002e72:	4d 8d 50 06          	lea    0x6(%r8),%r10
   140002e76:	48 8b 8d 90 00 00 00 	mov    0x90(%rbp),%rcx
   140002e7d:	48 89 45 00          	mov    %rax,0x0(%rbp)
   140002e81:	48 83 c0 fd          	add    $0xfffffffffffffffd,%rax
   140002e85:	48 89 b4 24 50 01 00 	mov    %rsi,0x150(%rsp)
   140002e8c:	00 
   140002e8d:	49 8b f1             	mov    %r9,%rsi
   140002e90:	48 89 45 f8          	mov    %rax,-0x8(%rbp)
   140002e94:	49 8d 04 12          	lea    (%r10,%rdx,1),%rax
   140002e98:	48 89 85 88 00 00 00 	mov    %rax,0x88(%rbp)
   140002e9f:	48 89 bc 24 48 01 00 	mov    %rdi,0x148(%rsp)
   140002ea6:	00 
   140002ea7:	48 8d 79 04          	lea    0x4(%rcx),%rdi
   140002eab:	4c 89 a4 24 40 01 00 	mov    %r12,0x140(%rsp)
   140002eb2:	00 
   140002eb3:	4c 89 b4 24 38 01 00 	mov    %r14,0x138(%rsp)
   140002eba:	00 
   140002ebb:	45 0f b7 70 02       	movzwl 0x2(%r8),%r14d
   140002ec0:	49 03 c6             	add    %r14,%rax
   140002ec3:	4c 89 bc 24 30 01 00 	mov    %r15,0x130(%rsp)
   140002eca:	00 
   140002ecb:	45 0f b7 78 04       	movzwl 0x4(%r8),%r15d
   140002ed0:	48 89 44 24 30       	mov    %rax,0x30(%rsp)
   140002ed5:	49 2b f7             	sub    %r15,%rsi
   140002ed8:	49 03 c7             	add    %r15,%rax
   140002edb:	c7 44 24 20 01 00 00 	movl   $0x1,0x20(%rsp)
   140002ee2:	00 
   140002ee3:	48 89 44 24 28       	mov    %rax,0x28(%rsp)
   140002ee8:	49 2b f6             	sub    %r14,%rsi
   140002eeb:	49 8d 43 03          	lea    0x3(%r11),%rax
   140002eef:	48 2b f2             	sub    %rdx,%rsi
   140002ef2:	48 c1 e8 02          	shr    $0x2,%rax
   140002ef6:	48 83 ee 06          	sub    $0x6,%rsi
   140002efa:	4e 8d 04 28          	lea    (%rax,%r13,1),%r8
   140002efe:	4d 8d 1c 00          	lea    (%r8,%rax,1),%r11
   140002f02:	4c 89 44 24 58       	mov    %r8,0x58(%rsp)
   140002f07:	49 03 c3             	add    %r11,%rax
   140002f0a:	4c 89 5c 24 60       	mov    %r11,0x60(%rsp)
   140002f0f:	48 89 44 24 68       	mov    %rax,0x68(%rsp)
   140002f14:	4c 8b e0             	mov    %rax,%r12
   140002f17:	48 89 44 24 70       	mov    %rax,0x70(%rsp)
   140002f1c:	8b 01                	mov    (%rcx),%eax
   140002f1e:	c1 e8 10             	shr    $0x10,%eax
   140002f21:	0f b6 d8             	movzbl %al,%ebx
   140002f24:	89 5d f0             	mov    %ebx,-0x10(%rbp)
   140002f27:	4c 89 44 24 40       	mov    %r8,0x40(%rsp)
   140002f2c:	4c 89 5c 24 50       	mov    %r11,0x50(%rsp)
   140002f31:	49 3b f1             	cmp    %r9,%rsi
   140002f34:	0f 87 5a 05 00 00    	ja     0x140003494
   140002f3a:	48 83 fa 01          	cmp    $0x1,%rdx
   140002f3e:	73 0c                	jae    0x140002f4c
   140002f40:	48 c7 c0 b8 ff ff ff 	mov    $0xffffffffffffffb8,%rax
   140002f47:	e9 66 0c 00 00       	jmpq   0x140003bb2
   140002f4c:	4c 8b c2             	mov    %rdx,%r8
   140002f4f:	48 8d 4d 08          	lea    0x8(%rbp),%rcx
   140002f53:	49 8b d2             	mov    %r10,%rdx
   140002f56:	e8 65 e1 ff ff       	callq  0x1400010c0
   140002f5b:	48 83 f8 88          	cmp    $0xffffffffffffff88,%rax
   140002f5f:	0f 87 4d 0c 00 00    	ja     0x140003bb2
   140002f65:	49 83 fe 01          	cmp    $0x1,%r14
   140002f69:	72 d5                	jb     0x140002f40
   140002f6b:	48 8b 95 88 00 00 00 	mov    0x88(%rbp),%rdx
   140002f72:	48 8d 4c 24 78       	lea    0x78(%rsp),%rcx
   140002f77:	4d 8b c6             	mov    %r14,%r8
   140002f7a:	e8 41 e1 ff ff       	callq  0x1400010c0
   140002f7f:	48 83 f8 88          	cmp    $0xffffffffffffff88,%rax
   140002f83:	0f 87 29 0c 00 00    	ja     0x140003bb2
   140002f89:	49 83 ff 01          	cmp    $0x1,%r15
   140002f8d:	72 b1                	jb     0x140002f40
   140002f8f:	48 8b 54 24 30       	mov    0x30(%rsp),%rdx
   140002f94:	48 8d 4d a0          	lea    -0x60(%rbp),%rcx
   140002f98:	4d 8b c7             	mov    %r15,%r8
   140002f9b:	e8 20 e1 ff ff       	callq  0x1400010c0
   140002fa0:	48 83 f8 88          	cmp    $0xffffffffffffff88,%rax
   140002fa4:	0f 87 08 0c 00 00    	ja     0x140003bb2
   140002faa:	48 83 fe 01          	cmp    $0x1,%rsi
   140002fae:	72 90                	jb     0x140002f40
   140002fb0:	48 8b 54 24 28       	mov    0x28(%rsp),%rdx
   140002fb5:	48 8d 4d c8          	lea    -0x38(%rbp),%rcx
   140002fb9:	4c 8b c6             	mov    %rsi,%r8
   140002fbc:	e8 ff e0 ff ff       	callq  0x1400010c0
   140002fc1:	48 83 f8 88          	cmp    $0xffffffffffffff88,%rax
   140002fc5:	0f 87 e7 0b 00 00    	ja     0x140003bb2
   140002fcb:	49 8b d4             	mov    %r12,%rdx
   140002fce:	44 8b 4d 10          	mov    0x10(%rbp),%r9d
   140002fd2:	44 8b 5d 80          	mov    -0x80(%rbp),%r11d
   140002fd6:	44 8b 45 a8          	mov    -0x58(%rbp),%r8d
   140002fda:	44 8b 55 d0          	mov    -0x30(%rbp),%r10d
   140002fde:	4c 3b 65 f8          	cmp    -0x8(%rbp),%r12
   140002fe2:	0f 83 57 04 00 00    	jae    0x14000343f
   140002fe8:	48 8b 55 08          	mov    0x8(%rbp),%rdx
   140002fec:	8b c3                	mov    %ebx,%eax
   140002fee:	4c 8b 7d 88          	mov    -0x78(%rbp),%r15
   140002ff2:	f7 d8                	neg    %eax
   140002ff4:	4c 8b 75 b0          	mov    -0x50(%rbp),%r14
   140002ff8:	83 e0 3f             	and    $0x3f,%eax
   140002ffb:	48 8b 75 d8          	mov    -0x28(%rbp),%rsi
   140002fff:	48 8b 5d 18          	mov    0x18(%rbp),%rbx
   140003003:	89 85 98 00 00 00    	mov    %eax,0x98(%rbp)
   140003009:	48 8b 44 24 78       	mov    0x78(%rsp),%rax
   14000300e:	48 89 44 24 48       	mov    %rax,0x48(%rsp)
   140003013:	48 8b 45 a0          	mov    -0x60(%rbp),%rax
   140003017:	48 89 44 24 28       	mov    %rax,0x28(%rsp)
   14000301c:	48 8b 45 c8          	mov    -0x38(%rbp),%rax
   140003020:	48 89 44 24 30       	mov    %rax,0x30(%rsp)
   140003025:	48 89 54 24 38       	mov    %rdx,0x38(%rsp)
   14000302a:	66 0f 1f 44 00 00    	nopw   0x0(%rax,%rax,1)
   140003030:	41 8b c9             	mov    %r9d,%ecx
   140003033:	83 e1 3f             	and    $0x3f,%ecx
   140003036:	48 d3 e2             	shl    %cl,%rdx
   140003039:	8b 8d 98 00 00 00    	mov    0x98(%rbp),%ecx
   14000303f:	48 d3 ea             	shr    %cl,%rdx
   140003042:	41 8b cb             	mov    %r11d,%ecx
   140003045:	83 e1 3f             	and    $0x3f,%ecx
   140003048:	0f b6 44 57 01       	movzbl 0x1(%rdi,%rdx,2),%eax
   14000304d:	44 03 c8             	add    %eax,%r9d
   140003050:	0f b6 04 57          	movzbl (%rdi,%rdx,2),%eax
   140003054:	48 8b 54 24 48       	mov    0x48(%rsp),%rdx
   140003059:	48 d3 e2             	shl    %cl,%rdx
   14000305c:	8b 8d 98 00 00 00    	mov    0x98(%rbp),%ecx
   140003062:	48 d3 ea             	shr    %cl,%rdx
   140003065:	48 8b 4c 24 40       	mov    0x40(%rsp),%rcx
   14000306a:	41 88 45 00          	mov    %al,0x0(%r13)
   14000306e:	0f b6 44 57 01       	movzbl 0x1(%rdi,%rdx,2),%eax
   140003073:	44 03 d8             	add    %eax,%r11d
   140003076:	0f b6 04 57          	movzbl (%rdi,%rdx,2),%eax
   14000307a:	88 01                	mov    %al,(%rcx)
   14000307c:	48 ff c1             	inc    %rcx
   14000307f:	48 8b 54 24 28       	mov    0x28(%rsp),%rdx
   140003084:	48 89 4c 24 40       	mov    %rcx,0x40(%rsp)
   140003089:	41 8b c8             	mov    %r8d,%ecx
   14000308c:	83 e1 3f             	and    $0x3f,%ecx
   14000308f:	48 d3 e2             	shl    %cl,%rdx
   140003092:	8b 8d 98 00 00 00    	mov    0x98(%rbp),%ecx
   140003098:	48 d3 ea             	shr    %cl,%rdx
   14000309b:	48 8b 4c 24 50       	mov    0x50(%rsp),%rcx
   1400030a0:	0f b6 44 57 01       	movzbl 0x1(%rdi,%rdx,2),%eax
   1400030a5:	44 03 c0             	add    %eax,%r8d
   1400030a8:	0f b6 04 57          	movzbl (%rdi,%rdx,2),%eax
   1400030ac:	48 8b 54 24 30       	mov    0x30(%rsp),%rdx
   1400030b1:	88 01                	mov    %al,(%rcx)
   1400030b3:	48 ff c1             	inc    %rcx
   1400030b6:	48 89 4c 24 50       	mov    %rcx,0x50(%rsp)
   1400030bb:	41 8b ca             	mov    %r10d,%ecx
   1400030be:	83 e1 3f             	and    $0x3f,%ecx
   1400030c1:	48 d3 e2             	shl    %cl,%rdx
   1400030c4:	8b 8d 98 00 00 00    	mov    0x98(%rbp),%ecx
   1400030ca:	48 d3 ea             	shr    %cl,%rdx
   1400030cd:	41 8b c9             	mov    %r9d,%ecx
   1400030d0:	83 e1 3f             	and    $0x3f,%ecx
   1400030d3:	0f b6 44 57 01       	movzbl 0x1(%rdi,%rdx,2),%eax
   1400030d8:	44 03 d0             	add    %eax,%r10d
   1400030db:	0f b6 04 57          	movzbl (%rdi,%rdx,2),%eax
   1400030df:	48 8b 54 24 38       	mov    0x38(%rsp),%rdx
   1400030e4:	48 d3 e2             	shl    %cl,%rdx
   1400030e7:	8b 8d 98 00 00 00    	mov    0x98(%rbp),%ecx
   1400030ed:	48 d3 ea             	shr    %cl,%rdx
   1400030f0:	41 8b cb             	mov    %r11d,%ecx
   1400030f3:	41 88 04 24          	mov    %al,(%r12)
   1400030f7:	83 e1 3f             	and    $0x3f,%ecx
   1400030fa:	0f b6 44 57 01       	movzbl 0x1(%rdi,%rdx,2),%eax
   1400030ff:	44 03 c8             	add    %eax,%r9d
   140003102:	0f b6 04 57          	movzbl (%rdi,%rdx,2),%eax
   140003106:	48 8b 54 24 48       	mov    0x48(%rsp),%rdx
   14000310b:	48 d3 e2             	shl    %cl,%rdx
   14000310e:	8b 8d 98 00 00 00    	mov    0x98(%rbp),%ecx
   140003114:	48 d3 ea             	shr    %cl,%rdx
   140003117:	48 8b 4c 24 40       	mov    0x40(%rsp),%rcx
   14000311c:	41 88 45 01          	mov    %al,0x1(%r13)
   140003120:	0f b6 44 57 01       	movzbl 0x1(%rdi,%rdx,2),%eax
   140003125:	44 03 d8             	add    %eax,%r11d
   140003128:	0f b6 04 57          	movzbl (%rdi,%rdx,2),%eax
   14000312c:	48 8b 54 24 28       	mov    0x28(%rsp),%rdx
   140003131:	88 01                	mov    %al,(%rcx)
   140003133:	48 ff c1             	inc    %rcx
   140003136:	48 89 4c 24 40       	mov    %rcx,0x40(%rsp)
   14000313b:	41 8b c8             	mov    %r8d,%ecx
   14000313e:	83 e1 3f             	and    $0x3f,%ecx
   140003141:	48 d3 e2             	shl    %cl,%rdx
   140003144:	8b 8d 98 00 00 00    	mov    0x98(%rbp),%ecx
   14000314a:	48 d3 ea             	shr    %cl,%rdx
   14000314d:	48 8b 4c 24 50       	mov    0x50(%rsp),%rcx
   140003152:	0f b6 44 57 01       	movzbl 0x1(%rdi,%rdx,2),%eax
   140003157:	44 03 c0             	add    %eax,%r8d
   14000315a:	0f b6 04 57          	movzbl (%rdi,%rdx,2),%eax
   14000315e:	88 01                	mov    %al,(%rcx)
   140003160:	48 ff c1             	inc    %rcx
   140003163:	48 89 4c 24 50       	mov    %rcx,0x50(%rsp)
   140003168:	48 8b 54 24 30       	mov    0x30(%rsp),%rdx
   14000316d:	41 8b ca             	mov    %r10d,%ecx
   140003170:	83 e1 3f             	and    $0x3f,%ecx
   140003173:	48 d3 e2             	shl    %cl,%rdx
   140003176:	8b 8d 98 00 00 00    	mov    0x98(%rbp),%ecx
   14000317c:	48 d3 ea             	shr    %cl,%rdx
   14000317f:	41 8b c9             	mov    %r9d,%ecx
   140003182:	83 e1 3f             	and    $0x3f,%ecx
   140003185:	0f b6 44 57 01       	movzbl 0x1(%rdi,%rdx,2),%eax
   14000318a:	44 03 d0             	add    %eax,%r10d
   14000318d:	0f b6 04 57          	movzbl (%rdi,%rdx,2),%eax
   140003191:	48 8b 54 24 38       	mov    0x38(%rsp),%rdx
   140003196:	48 d3 e2             	shl    %cl,%rdx
   140003199:	8b 8d 98 00 00 00    	mov    0x98(%rbp),%ecx
   14000319f:	48 d3 ea             	shr    %cl,%rdx
   1400031a2:	41 8b cb             	mov    %r11d,%ecx
   1400031a5:	41 88 44 24 01       	mov    %al,0x1(%r12)
   1400031aa:	83 e1 3f             	and    $0x3f,%ecx
   1400031ad:	0f b6 44 57 01       	movzbl 0x1(%rdi,%rdx,2),%eax
   1400031b2:	44 03 c8             	add    %eax,%r9d
   1400031b5:	0f b6 04 57          	movzbl (%rdi,%rdx,2),%eax
   1400031b9:	48 8b 54 24 48       	mov    0x48(%rsp),%rdx
   1400031be:	48 d3 e2             	shl    %cl,%rdx
   1400031c1:	8b 8d 98 00 00 00    	mov    0x98(%rbp),%ecx
   1400031c7:	48 d3 ea             	shr    %cl,%rdx
   1400031ca:	48 8b 4c 24 40       	mov    0x40(%rsp),%rcx
   1400031cf:	41 88 45 02          	mov    %al,0x2(%r13)
   1400031d3:	0f b6 44 57 01       	movzbl 0x1(%rdi,%rdx,2),%eax
   1400031d8:	41 03 c3             	add    %r11d,%eax
   1400031db:	44 8b 9d 98 00 00 00 	mov    0x98(%rbp),%r11d
   1400031e2:	89 85 88 00 00 00    	mov    %eax,0x88(%rbp)
   1400031e8:	0f b6 04 57          	movzbl (%rdi,%rdx,2),%eax
   1400031ec:	48 8b 54 24 28       	mov    0x28(%rsp),%rdx
   1400031f1:	88 01                	mov    %al,(%rcx)
   1400031f3:	48 ff c1             	inc    %rcx
   1400031f6:	48 89 4c 24 40       	mov    %rcx,0x40(%rsp)
   1400031fb:	41 8b c8             	mov    %r8d,%ecx
   1400031fe:	83 e1 3f             	and    $0x3f,%ecx
   140003201:	48 d3 e2             	shl    %cl,%rdx
   140003204:	41 8b cb             	mov    %r11d,%ecx
   140003207:	48 d3 ea             	shr    %cl,%rdx
   14000320a:	48 8b 4c 24 50       	mov    0x50(%rsp),%rcx
   14000320f:	0f b6 44 57 01       	movzbl 0x1(%rdi,%rdx,2),%eax
   140003214:	44 03 c0             	add    %eax,%r8d
   140003217:	0f b6 04 57          	movzbl (%rdi,%rdx,2),%eax
   14000321b:	48 8b 54 24 30       	mov    0x30(%rsp),%rdx
   140003220:	88 01                	mov    %al,(%rcx)
   140003222:	48 ff c1             	inc    %rcx
   140003225:	48 89 4c 24 50       	mov    %rcx,0x50(%rsp)
   14000322a:	41 8b ca             	mov    %r10d,%ecx
   14000322d:	83 e1 3f             	and    $0x3f,%ecx
   140003230:	48 d3 e2             	shl    %cl,%rdx
   140003233:	41 8b cb             	mov    %r11d,%ecx
   140003236:	48 d3 ea             	shr    %cl,%rdx
   140003239:	41 8b c9             	mov    %r9d,%ecx
   14000323c:	83 e1 3f             	and    $0x3f,%ecx
   14000323f:	0f b6 44 57 01       	movzbl 0x1(%rdi,%rdx,2),%eax
   140003244:	44 03 d0             	add    %eax,%r10d
   140003247:	0f b6 04 57          	movzbl (%rdi,%rdx,2),%eax
   14000324b:	48 8b 54 24 38       	mov    0x38(%rsp),%rdx
   140003250:	48 d3 e2             	shl    %cl,%rdx
   140003253:	41 8b cb             	mov    %r11d,%ecx
   140003256:	48 d3 ea             	shr    %cl,%rdx
   140003259:	41 88 44 24 02       	mov    %al,0x2(%r12)
   14000325e:	0f b6 44 57 01       	movzbl 0x1(%rdi,%rdx,2),%eax
   140003263:	44 03 c8             	add    %eax,%r9d
   140003266:	0f b6 04 57          	movzbl (%rdi,%rdx,2),%eax
   14000326a:	8b 95 88 00 00 00    	mov    0x88(%rbp),%edx
   140003270:	8b ca                	mov    %edx,%ecx
   140003272:	41 88 45 03          	mov    %al,0x3(%r13)
   140003276:	83 e1 3f             	and    $0x3f,%ecx
   140003279:	48 8b 44 24 48       	mov    0x48(%rsp),%rax
   14000327e:	49 83 c5 04          	add    $0x4,%r13
   140003282:	48 d3 e0             	shl    %cl,%rax
   140003285:	41 8b cb             	mov    %r11d,%ecx
   140003288:	48 d3 e8             	shr    %cl,%rax
   14000328b:	0f b6 4c 47 01       	movzbl 0x1(%rdi,%rax,2),%ecx
   140003290:	0f b6 04 47          	movzbl (%rdi,%rax,2),%eax
   140003294:	89 4c 24 24          	mov    %ecx,0x24(%rsp)
   140003298:	44 8d 1c 0a          	lea    (%rdx,%rcx,1),%r11d
   14000329c:	48 8b 4c 24 40       	mov    0x40(%rsp),%rcx
   1400032a1:	48 8b 54 24 28       	mov    0x28(%rsp),%rdx
   1400032a6:	88 01                	mov    %al,(%rcx)
   1400032a8:	48 ff c1             	inc    %rcx
   1400032ab:	48 89 4c 24 40       	mov    %rcx,0x40(%rsp)
   1400032b0:	41 8b c8             	mov    %r8d,%ecx
   1400032b3:	83 e1 3f             	and    $0x3f,%ecx
   1400032b6:	48 d3 e2             	shl    %cl,%rdx
   1400032b9:	8b 8d 98 00 00 00    	mov    0x98(%rbp),%ecx
   1400032bf:	48 d3 ea             	shr    %cl,%rdx
   1400032c2:	48 8b 4c 24 50       	mov    0x50(%rsp),%rcx
   1400032c7:	0f b6 44 57 01       	movzbl 0x1(%rdi,%rdx,2),%eax
   1400032cc:	44 03 c0             	add    %eax,%r8d
   1400032cf:	0f b6 04 57          	movzbl (%rdi,%rdx,2),%eax
   1400032d3:	48 8b 54 24 30       	mov    0x30(%rsp),%rdx
   1400032d8:	88 01                	mov    %al,(%rcx)
   1400032da:	48 ff c1             	inc    %rcx
   1400032dd:	48 89 4c 24 50       	mov    %rcx,0x50(%rsp)
   1400032e2:	41 8b ca             	mov    %r10d,%ecx
   1400032e5:	83 e1 3f             	and    $0x3f,%ecx
   1400032e8:	48 d3 e2             	shl    %cl,%rdx
   1400032eb:	8b 8d 98 00 00 00    	mov    0x98(%rbp),%ecx
   1400032f1:	48 d3 ea             	shr    %cl,%rdx
   1400032f4:	0f b6 44 57 01       	movzbl 0x1(%rdi,%rdx,2),%eax
   1400032f9:	44 03 d0             	add    %eax,%r10d
   1400032fc:	0f b6 04 57          	movzbl (%rdi,%rdx,2),%eax
   140003300:	41 88 44 24 03       	mov    %al,0x3(%r12)
   140003305:	49 83 c4 04          	add    $0x4,%r12
   140003309:	48 3b 5d 28          	cmp    0x28(%rbp),%rbx
   14000330d:	73 0c                	jae    0x14000331b
   14000330f:	48 8b 54 24 38       	mov    0x38(%rsp),%rdx
   140003314:	b8 03 00 00 00       	mov    $0x3,%eax
   140003319:	eb 18                	jmp    0x140003333
   14000331b:	41 8b c1             	mov    %r9d,%eax
   14000331e:	41 83 e1 07          	and    $0x7,%r9d
   140003322:	48 c1 e8 03          	shr    $0x3,%rax
   140003326:	48 2b d8             	sub    %rax,%rbx
   140003329:	33 c0                	xor    %eax,%eax
   14000332b:	48 8b 13             	mov    (%rbx),%rdx
   14000332e:	48 89 54 24 38       	mov    %rdx,0x38(%rsp)
   140003333:	33 c9                	xor    %ecx,%ecx
   140003335:	85 c0                	test   %eax,%eax
   140003337:	0f 44 4c 24 20       	cmove  0x20(%rsp),%ecx
   14000333c:	4c 3b 7d 98          	cmp    -0x68(%rbp),%r15
   140003340:	73 0c                	jae    0x14000334e
   140003342:	c7 85 88 00 00 00 03 	movl   $0x3,0x88(%rbp)
   140003349:	00 00 00 
   14000334c:	eb 2c                	jmp    0x14000337a
   14000334e:	44 8b 5c 24 24       	mov    0x24(%rsp),%r11d
   140003353:	44 03 9d 88 00 00 00 	add    0x88(%rbp),%r11d
   14000335a:	41 8b c3             	mov    %r11d,%eax
   14000335d:	48 c1 e8 03          	shr    $0x3,%rax
   140003361:	4c 2b f8             	sub    %rax,%r15
   140003364:	c7 85 88 00 00 00 00 	movl   $0x0,0x88(%rbp)
   14000336b:	00 00 00 
   14000336e:	41 83 e3 07          	and    $0x7,%r11d
   140003372:	49 8b 07             	mov    (%r15),%rax
   140003375:	48 89 44 24 48       	mov    %rax,0x48(%rsp)
   14000337a:	33 c0                	xor    %eax,%eax
   14000337c:	39 85 88 00 00 00    	cmp    %eax,0x88(%rbp)
   140003382:	0f 94 c0             	sete   %al
   140003385:	23 c1                	and    %ecx,%eax
   140003387:	89 44 24 20          	mov    %eax,0x20(%rsp)
   14000338b:	4c 3b 75 c0          	cmp    -0x40(%rbp),%r14
   14000338f:	73 0c                	jae    0x14000339d
   140003391:	c7 85 88 00 00 00 03 	movl   $0x3,0x88(%rbp)
   140003398:	00 00 00 
   14000339b:	eb 24                	jmp    0x1400033c1
   14000339d:	41 8b c0             	mov    %r8d,%eax
   1400033a0:	48 c1 e8 03          	shr    $0x3,%rax
   1400033a4:	4c 2b f0             	sub    %rax,%r14
   1400033a7:	c7 85 88 00 00 00 00 	movl   $0x0,0x88(%rbp)
   1400033ae:	00 00 00 
   1400033b1:	41 83 e0 07          	and    $0x7,%r8d
   1400033b5:	49 8b 06             	mov    (%r14),%rax
   1400033b8:	48 89 44 24 28       	mov    %rax,0x28(%rsp)
   1400033bd:	8b 44 24 20          	mov    0x20(%rsp),%eax
   1400033c1:	33 c9                	xor    %ecx,%ecx
   1400033c3:	39 8d 88 00 00 00    	cmp    %ecx,0x88(%rbp)
   1400033c9:	0f 44 c8             	cmove  %eax,%ecx
   1400033cc:	48 3b 75 e8          	cmp    -0x18(%rbp),%rsi
   1400033d0:	73 0c                	jae    0x1400033de
   1400033d2:	c7 85 88 00 00 00 03 	movl   $0x3,0x88(%rbp)
   1400033d9:	00 00 00 
   1400033dc:	eb 20                	jmp    0x1400033fe
   1400033de:	41 8b c2             	mov    %r10d,%eax
   1400033e1:	48 c1 e8 03          	shr    $0x3,%rax
   1400033e5:	48 2b f0             	sub    %rax,%rsi
   1400033e8:	c7 85 88 00 00 00 00 	movl   $0x0,0x88(%rbp)
   1400033ef:	00 00 00 
   1400033f2:	41 83 e2 07          	and    $0x7,%r10d
   1400033f6:	48 8b 06             	mov    (%rsi),%rax
   1400033f9:	48 89 44 24 30       	mov    %rax,0x30(%rsp)
   1400033fe:	33 c0                	xor    %eax,%eax
   140003400:	39 85 88 00 00 00    	cmp    %eax,0x88(%rbp)
   140003406:	0f 94 c0             	sete   %al
   140003409:	23 c8                	and    %eax,%ecx
   14000340b:	33 c0                	xor    %eax,%eax
   14000340d:	4c 3b 65 f8          	cmp    -0x8(%rbp),%r12
   140003411:	89 4c 24 20          	mov    %ecx,0x20(%rsp)
   140003415:	0f 42 c1             	cmovb  %ecx,%eax
   140003418:	85 c0                	test   %eax,%eax
   14000341a:	0f 85 10 fc ff ff    	jne    0x140003030
   140003420:	48 8b 54 24 68       	mov    0x68(%rsp),%rdx
   140003425:	48 89 5d 18          	mov    %rbx,0x18(%rbp)
   140003429:	8b 5d f0             	mov    -0x10(%rbp),%ebx
   14000342c:	48 89 75 d8          	mov    %rsi,-0x28(%rbp)
   140003430:	4c 89 75 b0          	mov    %r14,-0x50(%rbp)
   140003434:	4c 89 7d 88          	mov    %r15,-0x78(%rbp)
   140003438:	4c 89 64 24 70       	mov    %r12,0x70(%rsp)
   14000343d:	eb 25                	jmp    0x140003464
   14000343f:	48 8b 45 08          	mov    0x8(%rbp),%rax
   140003443:	48 89 44 24 38       	mov    %rax,0x38(%rsp)
   140003448:	48 8b 44 24 78       	mov    0x78(%rsp),%rax
   14000344d:	48 89 44 24 48       	mov    %rax,0x48(%rsp)
   140003452:	48 8b 45 a0          	mov    -0x60(%rbp),%rax
   140003456:	48 89 44 24 28       	mov    %rax,0x28(%rsp)
   14000345b:	48 8b 45 c8          	mov    -0x38(%rbp),%rax
   14000345f:	48 89 44 24 30       	mov    %rax,0x30(%rsp)
   140003464:	48 8b 44 24 58       	mov    0x58(%rsp),%rax
   140003469:	44 89 54 24 20       	mov    %r10d,0x20(%rsp)
   14000346e:	44 89 9d 88 00 00 00 	mov    %r11d,0x88(%rbp)
   140003475:	44 89 8d 98 00 00 00 	mov    %r9d,0x98(%rbp)
   14000347c:	4c 3b e8             	cmp    %rax,%r13
   14000347f:	77 13                	ja     0x140003494
   140003481:	48 8b 4c 24 60       	mov    0x60(%rsp),%rcx
   140003486:	48 39 4c 24 40       	cmp    %rcx,0x40(%rsp)
   14000348b:	77 07                	ja     0x140003494
   14000348d:	48 39 54 24 50       	cmp    %rdx,0x50(%rsp)
   140003492:	76 0c                	jbe    0x1400034a0
   140003494:	48 c7 c0 ec ff ff ff 	mov    $0xffffffffffffffec,%rax
   14000349b:	e9 12 07 00 00       	jmpq   0x140003bb2
   1400034a0:	48 8b 75 18          	mov    0x18(%rbp),%rsi
   1400034a4:	f7 db                	neg    %ebx
   1400034a6:	4c 8b 74 24 38       	mov    0x38(%rsp),%r14
   1400034ab:	83 e3 3f             	and    $0x3f,%ebx
   1400034ae:	4c 8b 65 20          	mov    0x20(%rbp),%r12
   1400034b2:	48 83 c0 fd          	add    $0xfffffffffffffffd,%rax
   1400034b6:	4c 8b d0             	mov    %rax,%r10
   1400034b9:	41 bf 01 00 00 00    	mov    $0x1,%r15d
   1400034bf:	90                   	nop
   1400034c0:	41 83 f9 40          	cmp    $0x40,%r9d
   1400034c4:	76 07                	jbe    0x1400034cd
   1400034c6:	ba 03 00 00 00       	mov    $0x3,%edx
   1400034cb:	eb 6a                	jmp    0x140003537
   1400034cd:	48 3b 75 28          	cmp    0x28(%rbp),%rsi
   1400034d1:	72 12                	jb     0x1400034e5
   1400034d3:	41 8b c1             	mov    %r9d,%eax
   1400034d6:	41 83 e1 07          	and    $0x7,%r9d
   1400034da:	48 c1 e8 03          	shr    $0x3,%rax
   1400034de:	48 2b f0             	sub    %rax,%rsi
   1400034e1:	33 d2                	xor    %edx,%edx
   1400034e3:	eb 4b                	jmp    0x140003530
   1400034e5:	49 3b f4             	cmp    %r12,%rsi
   1400034e8:	75 0b                	jne    0x1400034f5
   1400034ea:	41 83 f9 40          	cmp    $0x40,%r9d
   1400034ee:	1b c0                	sbb    %eax,%eax
   1400034f0:	8d 50 02             	lea    0x2(%rax),%edx
   1400034f3:	eb 42                	jmp    0x140003537
   1400034f5:	41 8b d1             	mov    %r9d,%edx
   1400034f8:	c7 85 98 00 00 00 00 	movl   $0x0,0x98(%rbp)
   1400034ff:	00 00 00 
   140003502:	c1 ea 03             	shr    $0x3,%edx
   140003505:	48 8b ce             	mov    %rsi,%rcx
   140003508:	8b c2                	mov    %edx,%eax
   14000350a:	48 2b c8             	sub    %rax,%rcx
   14000350d:	49 3b cc             	cmp    %r12,%rcx
   140003510:	73 0d                	jae    0x14000351f
   140003512:	8b 55 18             	mov    0x18(%rbp),%edx
   140003515:	2b 55 20             	sub    0x20(%rbp),%edx
   140003518:	44 89 bd 98 00 00 00 	mov    %r15d,0x98(%rbp)
   14000351f:	8b c2                	mov    %edx,%eax
   140003521:	48 2b f0             	sub    %rax,%rsi
   140003524:	6b c2 f8             	imul   $0xfffffff8,%edx,%eax
   140003527:	8b 95 98 00 00 00    	mov    0x98(%rbp),%edx
   14000352d:	44 03 c8             	add    %eax,%r9d
   140003530:	4c 8b 36             	mov    (%rsi),%r14
   140003533:	48 89 75 18          	mov    %rsi,0x18(%rbp)
   140003537:	33 c9                	xor    %ecx,%ecx
   140003539:	4d 3b ea             	cmp    %r10,%r13
   14000353c:	0f 92 c1             	setb   %cl
   14000353f:	33 c0                	xor    %eax,%eax
   140003541:	85 d2                	test   %edx,%edx
   140003543:	0f 94 c0             	sete   %al
   140003546:	85 c8                	test   %ecx,%eax
   140003548:	0f 84 8d 00 00 00    	je     0x1400035db
   14000354e:	41 8b c9             	mov    %r9d,%ecx
   140003551:	49 8b d6             	mov    %r14,%rdx
   140003554:	83 e1 3f             	and    $0x3f,%ecx
   140003557:	48 d3 e2             	shl    %cl,%rdx
   14000355a:	8b cb                	mov    %ebx,%ecx
   14000355c:	48 d3 ea             	shr    %cl,%rdx
   14000355f:	0f b6 44 57 01       	movzbl 0x1(%rdi,%rdx,2),%eax
   140003564:	44 03 c8             	add    %eax,%r9d
   140003567:	0f b6 04 57          	movzbl (%rdi,%rdx,2),%eax
   14000356b:	41 88 45 00          	mov    %al,0x0(%r13)
   14000356f:	41 8b c9             	mov    %r9d,%ecx
   140003572:	83 e1 3f             	and    $0x3f,%ecx
   140003575:	49 8b d6             	mov    %r14,%rdx
   140003578:	48 d3 e2             	shl    %cl,%rdx
   14000357b:	8b cb                	mov    %ebx,%ecx
   14000357d:	48 d3 ea             	shr    %cl,%rdx
   140003580:	0f b6 44 57 01       	movzbl 0x1(%rdi,%rdx,2),%eax
   140003585:	44 03 c8             	add    %eax,%r9d
   140003588:	0f b6 04 57          	movzbl (%rdi,%rdx,2),%eax
   14000358c:	41 88 45 01          	mov    %al,0x1(%r13)
   140003590:	41 8b c9             	mov    %r9d,%ecx
   140003593:	83 e1 3f             	and    $0x3f,%ecx
   140003596:	49 8b c6             	mov    %r14,%rax
   140003599:	48 d3 e0             	shl    %cl,%rax
   14000359c:	8b cb                	mov    %ebx,%ecx
   14000359e:	48 d3 e8             	shr    %cl,%rax
   1400035a1:	0f b6 54 47 01       	movzbl 0x1(%rdi,%rax,2),%edx
   1400035a6:	0f b6 04 47          	movzbl (%rdi,%rax,2),%eax
   1400035aa:	41 03 d1             	add    %r9d,%edx
   1400035ad:	41 88 45 02          	mov    %al,0x2(%r13)
   1400035b1:	8b ca                	mov    %edx,%ecx
   1400035b3:	83 e1 3f             	and    $0x3f,%ecx
   1400035b6:	49 8b c6             	mov    %r14,%rax
   1400035b9:	48 d3 e0             	shl    %cl,%rax
   1400035bc:	8b cb                	mov    %ebx,%ecx
   1400035be:	48 d3 e8             	shr    %cl,%rax
   1400035c1:	44 0f b6 4c 47 01    	movzbl 0x1(%rdi,%rax,2),%r9d
   1400035c7:	0f b6 04 47          	movzbl (%rdi,%rax,2),%eax
   1400035cb:	44 03 ca             	add    %edx,%r9d
   1400035ce:	41 88 45 03          	mov    %al,0x3(%r13)
   1400035d2:	49 83 c5 04          	add    $0x4,%r13
   1400035d6:	e9 e5 fe ff ff       	jmpq   0x1400034c0
   1400035db:	48 8b 44 24 58       	mov    0x58(%rsp),%rax
   1400035e0:	33 d2                	xor    %edx,%edx
   1400035e2:	4c 8b 7d 88          	mov    -0x78(%rbp),%r15
   1400035e6:	49 2b c5             	sub    %r13,%rax
   1400035e9:	4c 3b 6c 24 58       	cmp    0x58(%rsp),%r13
   1400035ee:	4c 89 74 24 38       	mov    %r14,0x38(%rsp)
   1400035f3:	48 0f 47 c2          	cmova  %rdx,%rax
   1400035f7:	44 89 8d 98 00 00 00 	mov    %r9d,0x98(%rbp)
   1400035fe:	48 85 c0             	test   %rax,%rax
   140003601:	74 45                	je     0x140003648
   140003603:	49 8b f6             	mov    %r14,%rsi
   140003606:	44 8b fa             	mov    %edx,%r15d
   140003609:	4c 8b f0             	mov    %rax,%r14
   14000360c:	0f 1f 40 00          	nopl   0x0(%rax)
   140003610:	41 8b c9             	mov    %r9d,%ecx
   140003613:	4d 8d 6d 01          	lea    0x1(%r13),%r13
   140003617:	83 e1 3f             	and    $0x3f,%ecx
   14000361a:	48 8b d6             	mov    %rsi,%rdx
   14000361d:	48 d3 e2             	shl    %cl,%rdx
   140003620:	49 ff c7             	inc    %r15
   140003623:	8b cb                	mov    %ebx,%ecx
   140003625:	48 d3 ea             	shr    %cl,%rdx
   140003628:	0f b6 44 57 01       	movzbl 0x1(%rdi,%rdx,2),%eax
   14000362d:	44 03 c8             	add    %eax,%r9d
   140003630:	0f b6 04 57          	movzbl (%rdi,%rdx,2),%eax
   140003634:	41 88 45 ff          	mov    %al,-0x1(%r13)
   140003638:	4d 3b fe             	cmp    %r14,%r15
   14000363b:	72 d3                	jb     0x140003610
   14000363d:	4c 8b 7d 88          	mov    -0x78(%rbp),%r15
   140003641:	44 89 8d 98 00 00 00 	mov    %r9d,0x98(%rbp)
   140003648:	48 8b 44 24 60       	mov    0x60(%rsp),%rax
   14000364d:	41 be 01 00 00 00    	mov    $0x1,%r14d
   140003653:	4c 8b 6c 24 40       	mov    0x40(%rsp),%r13
   140003658:	48 83 c0 fd          	add    $0xfffffffffffffffd,%rax
   14000365c:	48 8b 74 24 48       	mov    0x48(%rsp),%rsi
   140003661:	4c 8b e0             	mov    %rax,%r12
   140003664:	45 33 c9             	xor    %r9d,%r9d
   140003667:	41 83 fb 40          	cmp    $0x40,%r11d
   14000366b:	76 07                	jbe    0x140003674
   14000366d:	ba 03 00 00 00       	mov    $0x3,%edx
   140003672:	eb 6a                	jmp    0x1400036de
   140003674:	4c 3b 7d 98          	cmp    -0x68(%rbp),%r15
   140003678:	72 13                	jb     0x14000368d
   14000367a:	41 8b c3             	mov    %r11d,%eax
   14000367d:	41 8b d1             	mov    %r9d,%edx
   140003680:	48 c1 e8 03          	shr    $0x3,%rax
   140003684:	4c 2b f8             	sub    %rax,%r15
   140003687:	41 83 e3 07          	and    $0x7,%r11d
   14000368b:	eb 4a                	jmp    0x1400036d7
   14000368d:	4c 3b 7d 90          	cmp    -0x70(%rbp),%r15
   140003691:	75 0b                	jne    0x14000369e
   140003693:	41 83 fb 40          	cmp    $0x40,%r11d
   140003697:	1b c0                	sbb    %eax,%eax
   140003699:	8d 50 02             	lea    0x2(%rax),%edx
   14000369c:	eb 40                	jmp    0x1400036de
   14000369e:	41 8b d3             	mov    %r11d,%edx
   1400036a1:	44 89 8d 88 00 00 00 	mov    %r9d,0x88(%rbp)
   1400036a8:	c1 ea 03             	shr    $0x3,%edx
   1400036ab:	49 8b cf             	mov    %r15,%rcx
   1400036ae:	8b c2                	mov    %edx,%eax
   1400036b0:	48 2b c8             	sub    %rax,%rcx
   1400036b3:	48 3b 4d 90          	cmp    -0x70(%rbp),%rcx
   1400036b7:	73 0d                	jae    0x1400036c6
   1400036b9:	8b 55 88             	mov    -0x78(%rbp),%edx
   1400036bc:	2b 55 90             	sub    -0x70(%rbp),%edx
   1400036bf:	44 89 b5 88 00 00 00 	mov    %r14d,0x88(%rbp)
   1400036c6:	8b c2                	mov    %edx,%eax
   1400036c8:	4c 2b f8             	sub    %rax,%r15
   1400036cb:	6b c2 f8             	imul   $0xfffffff8,%edx,%eax
   1400036ce:	8b 95 88 00 00 00    	mov    0x88(%rbp),%edx
   1400036d4:	44 03 d8             	add    %eax,%r11d
   1400036d7:	49 8b 37             	mov    (%r15),%rsi
   1400036da:	4c 89 7d 88          	mov    %r15,-0x78(%rbp)
   1400036de:	4d 3b ec             	cmp    %r12,%r13
   1400036e1:	41 8b c9             	mov    %r9d,%ecx
   1400036e4:	41 8b c1             	mov    %r9d,%eax
   1400036e7:	0f 92 c1             	setb   %cl
   1400036ea:	85 d2                	test   %edx,%edx
   1400036ec:	0f 94 c0             	sete   %al
   1400036ef:	85 c8                	test   %ecx,%eax
   1400036f1:	0f 84 8d 00 00 00    	je     0x140003784
   1400036f7:	41 8b cb             	mov    %r11d,%ecx
   1400036fa:	48 8b d6             	mov    %rsi,%rdx
   1400036fd:	83 e1 3f             	and    $0x3f,%ecx
   140003700:	48 d3 e2             	shl    %cl,%rdx
   140003703:	8b cb                	mov    %ebx,%ecx
   140003705:	48 d3 ea             	shr    %cl,%rdx
   140003708:	0f b6 44 57 01       	movzbl 0x1(%rdi,%rdx,2),%eax
   14000370d:	44 03 d8             	add    %eax,%r11d
   140003710:	0f b6 04 57          	movzbl (%rdi,%rdx,2),%eax
   140003714:	41 88 45 00          	mov    %al,0x0(%r13)
   140003718:	41 8b cb             	mov    %r11d,%ecx
   14000371b:	83 e1 3f             	and    $0x3f,%ecx
   14000371e:	48 8b d6             	mov    %rsi,%rdx
   140003721:	48 d3 e2             	shl    %cl,%rdx
   140003724:	8b cb                	mov    %ebx,%ecx
   140003726:	48 d3 ea             	shr    %cl,%rdx
   140003729:	0f b6 44 57 01       	movzbl 0x1(%rdi,%rdx,2),%eax
   14000372e:	44 03 d8             	add    %eax,%r11d
   140003731:	0f b6 04 57          	movzbl (%rdi,%rdx,2),%eax
   140003735:	41 88 45 01          	mov    %al,0x1(%r13)
   140003739:	41 8b cb             	mov    %r11d,%ecx
   14000373c:	83 e1 3f             	and    $0x3f,%ecx
   14000373f:	48 8b c6             	mov    %rsi,%rax
   140003742:	48 d3 e0             	shl    %cl,%rax
   140003745:	8b cb                	mov    %ebx,%ecx
   140003747:	48 d3 e8             	shr    %cl,%rax
   14000374a:	0f b6 54 47 01       	movzbl 0x1(%rdi,%rax,2),%edx
   14000374f:	0f b6 04 47          	movzbl (%rdi,%rax,2),%eax
   140003753:	41 03 d3             	add    %r11d,%edx
   140003756:	41 88 45 02          	mov    %al,0x2(%r13)
   14000375a:	8b ca                	mov    %edx,%ecx
   14000375c:	83 e1 3f             	and    $0x3f,%ecx
   14000375f:	48 8b c6             	mov    %rsi,%rax
   140003762:	48 d3 e0             	shl    %cl,%rax
   140003765:	8b cb                	mov    %ebx,%ecx
   140003767:	48 d3 e8             	shr    %cl,%rax
   14000376a:	44 0f b6 5c 47 01    	movzbl 0x1(%rdi,%rax,2),%r11d
   140003770:	0f b6 04 47          	movzbl (%rdi,%rax,2),%eax
   140003774:	44 03 da             	add    %edx,%r11d
   140003777:	41 88 45 03          	mov    %al,0x3(%r13)
   14000377b:	49 83 c5 04          	add    $0x4,%r13
   14000377f:	e9 e3 fe ff ff       	jmpq   0x140003667
   140003784:	48 8b 44 24 60       	mov    0x60(%rsp),%rax
   140003789:	4c 8b 75 b0          	mov    -0x50(%rbp),%r14
   14000378d:	49 2b c5             	sub    %r13,%rax
   140003790:	4c 3b 6c 24 60       	cmp    0x60(%rsp),%r13
   140003795:	48 89 74 24 48       	mov    %rsi,0x48(%rsp)
   14000379a:	49 0f 47 c1          	cmova  %r9,%rax
   14000379e:	44 89 9d 88 00 00 00 	mov    %r11d,0x88(%rbp)
   1400037a5:	48 85 c0             	test   %rax,%rax
   1400037a8:	74 4e                	je     0x1400037f8
   1400037aa:	4c 8b f6             	mov    %rsi,%r14
   1400037ad:	4d 8b f9             	mov    %r9,%r15
   1400037b0:	48 8b f0             	mov    %rax,%rsi
   1400037b3:	0f 1f 40 00          	nopl   0x0(%rax)
   1400037b7:	66 0f 1f 84 00 00 00 	nopw   0x0(%rax,%rax,1)
   1400037be:	00 00 
   1400037c0:	41 8b cb             	mov    %r11d,%ecx
   1400037c3:	4d 8d 6d 01          	lea    0x1(%r13),%r13
   1400037c7:	83 e1 3f             	and    $0x3f,%ecx
   1400037ca:	49 8b d6             	mov    %r14,%rdx
   1400037cd:	48 d3 e2             	shl    %cl,%rdx
   1400037d0:	49 ff c7             	inc    %r15
   1400037d3:	8b cb                	mov    %ebx,%ecx
   1400037d5:	48 d3 ea             	shr    %cl,%rdx
   1400037d8:	0f b6 44 57 01       	movzbl 0x1(%rdi,%rdx,2),%eax
   1400037dd:	44 03 d8             	add    %eax,%r11d
   1400037e0:	0f b6 04 57          	movzbl (%rdi,%rdx,2),%eax
   1400037e4:	41 88 45 ff          	mov    %al,-0x1(%r13)
   1400037e8:	4c 3b fe             	cmp    %rsi,%r15
   1400037eb:	72 d3                	jb     0x1400037c0
   1400037ed:	4c 8b 75 b0          	mov    -0x50(%rbp),%r14
   1400037f1:	44 89 9d 88 00 00 00 	mov    %r11d,0x88(%rbp)
   1400037f8:	48 8b 44 24 68       	mov    0x68(%rsp),%rax
   1400037fd:	41 bf 01 00 00 00    	mov    $0x1,%r15d
   140003803:	4c 8b 6c 24 50       	mov    0x50(%rsp),%r13
   140003808:	48 83 c0 fd          	add    $0xfffffffffffffffd,%rax
   14000380c:	48 8b 74 24 28       	mov    0x28(%rsp),%rsi
   140003811:	4c 8b e0             	mov    %rax,%r12
   140003814:	45 33 d2             	xor    %r10d,%r10d
   140003817:	41 83 f8 40          	cmp    $0x40,%r8d
   14000381b:	76 07                	jbe    0x140003824
   14000381d:	ba 03 00 00 00       	mov    $0x3,%edx
   140003822:	eb 64                	jmp    0x140003888
   140003824:	4c 3b 75 c0          	cmp    -0x40(%rbp),%r14
   140003828:	72 13                	jb     0x14000383d
   14000382a:	41 8b c0             	mov    %r8d,%eax
   14000382d:	41 8b d2             	mov    %r10d,%edx
   140003830:	48 c1 e8 03          	shr    $0x3,%rax
   140003834:	4c 2b f0             	sub    %rax,%r14
   140003837:	41 83 e0 07          	and    $0x7,%r8d
   14000383b:	eb 44                	jmp    0x140003881
   14000383d:	4c 3b 75 b8          	cmp    -0x48(%rbp),%r14
   140003841:	75 0b                	jne    0x14000384e
   140003843:	41 83 f8 40          	cmp    $0x40,%r8d
   140003847:	1b c0                	sbb    %eax,%eax
   140003849:	8d 50 02             	lea    0x2(%rax),%edx
   14000384c:	eb 3a                	jmp    0x140003888
   14000384e:	41 8b d0             	mov    %r8d,%edx
   140003851:	44 89 54 24 24       	mov    %r10d,0x24(%rsp)
   140003856:	c1 ea 03             	shr    $0x3,%edx
   140003859:	49 8b ce             	mov    %r14,%rcx
   14000385c:	8b c2                	mov    %edx,%eax
   14000385e:	48 2b c8             	sub    %rax,%rcx
   140003861:	48 3b 4d b8          	cmp    -0x48(%rbp),%rcx
   140003865:	73 0b                	jae    0x140003872
   140003867:	8b 55 b0             	mov    -0x50(%rbp),%edx
   14000386a:	2b 55 b8             	sub    -0x48(%rbp),%edx
   14000386d:	44 89 7c 24 24       	mov    %r15d,0x24(%rsp)
   140003872:	8b c2                	mov    %edx,%eax
   140003874:	4c 2b f0             	sub    %rax,%r14
   140003877:	6b c2 f8             	imul   $0xfffffff8,%edx,%eax
   14000387a:	8b 54 24 24          	mov    0x24(%rsp),%edx
   14000387e:	44 03 c0             	add    %eax,%r8d
   140003881:	49 8b 36             	mov    (%r14),%rsi
   140003884:	4c 89 75 b0          	mov    %r14,-0x50(%rbp)
   140003888:	4d 3b ec             	cmp    %r12,%r13
   14000388b:	41 8b ca             	mov    %r10d,%ecx
   14000388e:	41 8b c2             	mov    %r10d,%eax
   140003891:	0f 92 c1             	setb   %cl
   140003894:	85 d2                	test   %edx,%edx
   140003896:	0f 94 c0             	sete   %al
   140003899:	85 c8                	test   %ecx,%eax
   14000389b:	0f 84 8d 00 00 00    	je     0x14000392e
   1400038a1:	41 8b c8             	mov    %r8d,%ecx
   1400038a4:	48 8b d6             	mov    %rsi,%rdx
   1400038a7:	83 e1 3f             	and    $0x3f,%ecx
   1400038aa:	48 d3 e2             	shl    %cl,%rdx
   1400038ad:	8b cb                	mov    %ebx,%ecx
   1400038af:	48 d3 ea             	shr    %cl,%rdx
   1400038b2:	0f b6 44 57 01       	movzbl 0x1(%rdi,%rdx,2),%eax
   1400038b7:	44 03 c0             	add    %eax,%r8d
   1400038ba:	0f b6 04 57          	movzbl (%rdi,%rdx,2),%eax
   1400038be:	41 88 45 00          	mov    %al,0x0(%r13)
   1400038c2:	41 8b c8             	mov    %r8d,%ecx
   1400038c5:	83 e1 3f             	and    $0x3f,%ecx
   1400038c8:	48 8b d6             	mov    %rsi,%rdx
   1400038cb:	48 d3 e2             	shl    %cl,%rdx
   1400038ce:	8b cb                	mov    %ebx,%ecx
   1400038d0:	48 d3 ea             	shr    %cl,%rdx
   1400038d3:	0f b6 44 57 01       	movzbl 0x1(%rdi,%rdx,2),%eax
   1400038d8:	44 03 c0             	add    %eax,%r8d
   1400038db:	0f b6 04 57          	movzbl (%rdi,%rdx,2),%eax
   1400038df:	41 88 45 01          	mov    %al,0x1(%r13)
   1400038e3:	41 8b c8             	mov    %r8d,%ecx
   1400038e6:	83 e1 3f             	and    $0x3f,%ecx
   1400038e9:	48 8b c6             	mov    %rsi,%rax
   1400038ec:	48 d3 e0             	shl    %cl,%rax
   1400038ef:	8b cb                	mov    %ebx,%ecx
   1400038f1:	48 d3 e8             	shr    %cl,%rax
   1400038f4:	0f b6 54 47 01       	movzbl 0x1(%rdi,%rax,2),%edx
   1400038f9:	0f b6 04 47          	movzbl (%rdi,%rax,2),%eax
   1400038fd:	41 03 d0             	add    %r8d,%edx
   140003900:	41 88 45 02          	mov    %al,0x2(%r13)
   140003904:	8b ca                	mov    %edx,%ecx
   140003906:	83 e1 3f             	and    $0x3f,%ecx
   140003909:	48 8b c6             	mov    %rsi,%rax
   14000390c:	48 d3 e0             	shl    %cl,%rax
   14000390f:	8b cb                	mov    %ebx,%ecx
   140003911:	48 d3 e8             	shr    %cl,%rax
   140003914:	44 0f b6 44 47 01    	movzbl 0x1(%rdi,%rax,2),%r8d
   14000391a:	0f b6 04 47          	movzbl (%rdi,%rax,2),%eax
   14000391e:	44 03 c2             	add    %edx,%r8d
   140003921:	41 88 45 03          	mov    %al,0x3(%r13)
   140003925:	49 83 c5 04          	add    $0x4,%r13
   140003929:	e9 e9 fe ff ff       	jmpq   0x140003817
   14000392e:	48 8b 44 24 68       	mov    0x68(%rsp),%rax
   140003933:	4c 8b 64 24 70       	mov    0x70(%rsp),%r12
   140003938:	49 2b c5             	sub    %r13,%rax
   14000393b:	4c 3b 6c 24 68       	cmp    0x68(%rsp),%r13
   140003940:	48 89 74 24 28       	mov    %rsi,0x28(%rsp)
   140003945:	48 8b 75 d8          	mov    -0x28(%rbp),%rsi
   140003949:	49 0f 47 c2          	cmova  %r10,%rax
   14000394d:	44 8b 54 24 20       	mov    0x20(%rsp),%r10d
   140003952:	48 85 c0             	test   %rax,%rax
   140003955:	74 4a                	je     0x1400039a1
   140003957:	48 8b 74 24 28       	mov    0x28(%rsp),%rsi
   14000395c:	4d 8b f1             	mov    %r9,%r14
   14000395f:	4c 8b f8             	mov    %rax,%r15
   140003962:	0f 1f 40 00          	nopl   0x0(%rax)
   140003966:	66 66 0f 1f 84 00 00 	data16 nopw 0x0(%rax,%rax,1)
   14000396d:	00 00 00 
   140003970:	41 8b c8             	mov    %r8d,%ecx
   140003973:	4d 8d 6d 01          	lea    0x1(%r13),%r13
   140003977:	83 e1 3f             	and    $0x3f,%ecx
   14000397a:	48 8b d6             	mov    %rsi,%rdx
   14000397d:	48 d3 e2             	shl    %cl,%rdx
   140003980:	49 ff c6             	inc    %r14
   140003983:	8b cb                	mov    %ebx,%ecx
   140003985:	48 d3 ea             	shr    %cl,%rdx
   140003988:	0f b6 44 57 01       	movzbl 0x1(%rdi,%rdx,2),%eax
   14000398d:	44 03 c0             	add    %eax,%r8d
   140003990:	0f b6 04 57          	movzbl (%rdi,%rdx,2),%eax
   140003994:	41 88 45 ff          	mov    %al,-0x1(%r13)
   140003998:	4d 3b f7             	cmp    %r15,%r14
   14000399b:	72 d3                	jb     0x140003970
   14000399d:	48 8b 75 d8          	mov    -0x28(%rbp),%rsi
   1400039a1:	4c 8b 74 24 30       	mov    0x30(%rsp),%r14
   1400039a6:	41 bf 01 00 00 00    	mov    $0x1,%r15d
   1400039ac:	4c 8b 4d f8          	mov    -0x8(%rbp),%r9
   1400039b0:	45 33 db             	xor    %r11d,%r11d
   1400039b3:	41 83 fa 40          	cmp    $0x40,%r10d
   1400039b7:	76 08                	jbe    0x1400039c1
   1400039b9:	41 bd 03 00 00 00    	mov    $0x3,%r13d
   1400039bf:	eb 5e                	jmp    0x140003a1f
   1400039c1:	48 3b 75 e8          	cmp    -0x18(%rbp),%rsi
   1400039c5:	72 13                	jb     0x1400039da
   1400039c7:	41 8b c2             	mov    %r10d,%eax
   1400039ca:	45 8b eb             	mov    %r11d,%r13d
   1400039cd:	48 c1 e8 03          	shr    $0x3,%rax
   1400039d1:	48 2b f0             	sub    %rax,%rsi
   1400039d4:	41 83 e2 07          	and    $0x7,%r10d
   1400039d8:	eb 3e                	jmp    0x140003a18
   1400039da:	48 3b 75 e0          	cmp    -0x20(%rbp),%rsi
   1400039de:	75 0d                	jne    0x1400039ed
   1400039e0:	41 83 fa 40          	cmp    $0x40,%r10d
   1400039e4:	45 1b ed             	sbb    %r13d,%r13d
   1400039e7:	41 83 c5 02          	add    $0x2,%r13d
   1400039eb:	eb 32                	jmp    0x140003a1f
   1400039ed:	41 8b d2             	mov    %r10d,%edx
   1400039f0:	48 8b ce             	mov    %rsi,%rcx
   1400039f3:	c1 ea 03             	shr    $0x3,%edx
   1400039f6:	45 8b eb             	mov    %r11d,%r13d
   1400039f9:	8b c2                	mov    %edx,%eax
   1400039fb:	48 2b c8             	sub    %rax,%rcx
   1400039fe:	48 3b 4d e0          	cmp    -0x20(%rbp),%rcx
   140003a02:	73 09                	jae    0x140003a0d
   140003a04:	8b 55 d8             	mov    -0x28(%rbp),%edx
   140003a07:	45 8b ef             	mov    %r15d,%r13d
   140003a0a:	2b 55 e0             	sub    -0x20(%rbp),%edx
   140003a0d:	8b c2                	mov    %edx,%eax
   140003a0f:	48 2b f0             	sub    %rax,%rsi
   140003a12:	6b c2 f8             	imul   $0xfffffff8,%edx,%eax
   140003a15:	44 03 d0             	add    %eax,%r10d
   140003a18:	4c 8b 36             	mov    (%rsi),%r14
   140003a1b:	48 89 75 d8          	mov    %rsi,-0x28(%rbp)
   140003a1f:	4d 3b e1             	cmp    %r9,%r12
   140003a22:	41 8b cb             	mov    %r11d,%ecx
   140003a25:	41 8b c3             	mov    %r11d,%eax
   140003a28:	0f 92 c1             	setb   %cl
   140003a2b:	45 85 ed             	test   %r13d,%r13d
   140003a2e:	0f 94 c0             	sete   %al
   140003a31:	85 c8                	test   %ecx,%eax
   140003a33:	0f 84 90 00 00 00    	je     0x140003ac9
   140003a39:	41 8b ca             	mov    %r10d,%ecx
   140003a3c:	49 8b d6             	mov    %r14,%rdx
   140003a3f:	83 e1 3f             	and    $0x3f,%ecx
   140003a42:	48 d3 e2             	shl    %cl,%rdx
   140003a45:	8b cb                	mov    %ebx,%ecx
   140003a47:	48 d3 ea             	shr    %cl,%rdx
   140003a4a:	0f b6 44 57 01       	movzbl 0x1(%rdi,%rdx,2),%eax
   140003a4f:	44 03 d0             	add    %eax,%r10d
   140003a52:	0f b6 04 57          	movzbl (%rdi,%rdx,2),%eax
   140003a56:	41 88 04 24          	mov    %al,(%r12)
   140003a5a:	41 8b ca             	mov    %r10d,%ecx
   140003a5d:	83 e1 3f             	and    $0x3f,%ecx
   140003a60:	49 8b d6             	mov    %r14,%rdx
   140003a63:	48 d3 e2             	shl    %cl,%rdx
   140003a66:	8b cb                	mov    %ebx,%ecx
   140003a68:	48 d3 ea             	shr    %cl,%rdx
   140003a6b:	0f b6 44 57 01       	movzbl 0x1(%rdi,%rdx,2),%eax
   140003a70:	44 03 d0             	add    %eax,%r10d
   140003a73:	0f b6 04 57          	movzbl (%rdi,%rdx,2),%eax
   140003a77:	41 88 44 24 01       	mov    %al,0x1(%r12)
   140003a7c:	41 8b ca             	mov    %r10d,%ecx
   140003a7f:	83 e1 3f             	and    $0x3f,%ecx
   140003a82:	49 8b c6             	mov    %r14,%rax
   140003a85:	48 d3 e0             	shl    %cl,%rax
   140003a88:	8b cb                	mov    %ebx,%ecx
   140003a8a:	48 d3 e8             	shr    %cl,%rax
   140003a8d:	0f b6 54 47 01       	movzbl 0x1(%rdi,%rax,2),%edx
   140003a92:	0f b6 04 47          	movzbl (%rdi,%rax,2),%eax
   140003a96:	41 03 d2             	add    %r10d,%edx
   140003a99:	41 88 44 24 02       	mov    %al,0x2(%r12)
   140003a9e:	8b ca                	mov    %edx,%ecx
   140003aa0:	83 e1 3f             	and    $0x3f,%ecx
   140003aa3:	49 8b c6             	mov    %r14,%rax
   140003aa6:	48 d3 e0             	shl    %cl,%rax
   140003aa9:	8b cb                	mov    %ebx,%ecx
   140003aab:	48 d3 e8             	shr    %cl,%rax
   140003aae:	44 0f b6 54 47 01    	movzbl 0x1(%rdi,%rax,2),%r10d
   140003ab4:	0f b6 04 47          	movzbl (%rdi,%rax,2),%eax
   140003ab8:	44 03 d2             	add    %edx,%r10d
   140003abb:	41 88 44 24 03       	mov    %al,0x3(%r12)
   140003ac0:	49 83 c4 04          	add    $0x4,%r12
   140003ac4:	e9 ea fe ff ff       	jmpq   0x1400039b3
   140003ac9:	48 8b 45 00          	mov    0x0(%rbp),%rax
   140003acd:	4d 8b eb             	mov    %r11,%r13
   140003ad0:	44 8b 8d 98 00 00 00 	mov    0x98(%rbp),%r9d
   140003ad7:	49 2b c4             	sub    %r12,%rax
   140003ada:	4c 3b 65 00          	cmp    0x0(%rbp),%r12
   140003ade:	4c 8b 7d 88          	mov    -0x78(%rbp),%r15
   140003ae2:	49 0f 47 c3          	cmova  %r11,%rax
   140003ae6:	4c 89 74 24 30       	mov    %r14,0x30(%rsp)
   140003aeb:	44 8b 9d 88 00 00 00 	mov    0x88(%rbp),%r11d
   140003af2:	4c 8b 75 b0          	mov    -0x50(%rbp),%r14
   140003af6:	48 85 c0             	test   %rax,%rax
   140003af9:	74 4c                	je     0x140003b47
   140003afb:	4c 8b 74 24 30       	mov    0x30(%rsp),%r14
   140003b00:	4c 8b f8             	mov    %rax,%r15
   140003b03:	0f 1f 40 00          	nopl   0x0(%rax)
   140003b07:	66 0f 1f 84 00 00 00 	nopw   0x0(%rax,%rax,1)
   140003b0e:	00 00 
   140003b10:	41 8b ca             	mov    %r10d,%ecx
   140003b13:	4d 8d 64 24 01       	lea    0x1(%r12),%r12
   140003b18:	83 e1 3f             	and    $0x3f,%ecx
   140003b1b:	49 8b d6             	mov    %r14,%rdx
   140003b1e:	48 d3 e2             	shl    %cl,%rdx
   140003b21:	49 ff c5             	inc    %r13
   140003b24:	8b cb                	mov    %ebx,%ecx
   140003b26:	48 d3 ea             	shr    %cl,%rdx
   140003b29:	0f b6 44 57 01       	movzbl 0x1(%rdi,%rdx,2),%eax
   140003b2e:	44 03 d0             	add    %eax,%r10d
   140003b31:	0f b6 04 57          	movzbl (%rdi,%rdx,2),%eax
   140003b35:	41 88 44 24 ff       	mov    %al,-0x1(%r12)
   140003b3a:	4d 3b ef             	cmp    %r15,%r13
   140003b3d:	72 d1                	jb     0x140003b10
   140003b3f:	4c 8b 75 b0          	mov    -0x50(%rbp),%r14
   140003b43:	4c 8b 7d 88          	mov    -0x78(%rbp),%r15
   140003b47:	48 8b 45 20          	mov    0x20(%rbp),%rax
   140003b4b:	48 39 45 18          	cmp    %rax,0x18(%rbp)
   140003b4f:	75 12                	jne    0x140003b63
   140003b51:	41 83 f9 40          	cmp    $0x40,%r9d
   140003b55:	75 0c                	jne    0x140003b63
   140003b57:	b8 01 00 00 00       	mov    $0x1,%eax
   140003b5c:	33 db                	xor    %ebx,%ebx
   140003b5e:	44 8b c8             	mov    %eax,%r9d
   140003b61:	eb 08                	jmp    0x140003b6b
   140003b63:	33 db                	xor    %ebx,%ebx
   140003b65:	44 8b cb             	mov    %ebx,%r9d
   140003b68:	8d 43 01             	lea    0x1(%rbx),%eax
   140003b6b:	4c 3b 7d 90          	cmp    -0x70(%rbp),%r15
   140003b6f:	75 08                	jne    0x140003b79
   140003b71:	8b d0                	mov    %eax,%edx
   140003b73:	41 83 fb 40          	cmp    $0x40,%r11d
   140003b77:	74 02                	je     0x140003b7b
   140003b79:	8b d3                	mov    %ebx,%edx
   140003b7b:	4c 3b 75 b8          	cmp    -0x48(%rbp),%r14
   140003b7f:	75 08                	jne    0x140003b89
   140003b81:	8b c8                	mov    %eax,%ecx
   140003b83:	41 83 f8 40          	cmp    $0x40,%r8d
   140003b87:	74 02                	je     0x140003b8b
   140003b89:	8b cb                	mov    %ebx,%ecx
   140003b8b:	48 3b 75 e0          	cmp    -0x20(%rbp),%rsi
   140003b8f:	75 06                	jne    0x140003b97
   140003b91:	41 83 fa 40          	cmp    $0x40,%r10d
   140003b95:	74 02                	je     0x140003b99
   140003b97:	8b c3                	mov    %ebx,%eax
   140003b99:	23 c1                	and    %ecx,%eax
   140003b9b:	48 8b 4d 78          	mov    0x78(%rbp),%rcx
   140003b9f:	23 c2                	and    %edx,%eax
   140003ba1:	41 85 c1             	test   %eax,%r9d
   140003ba4:	48 c7 c0 ec ff ff ff 	mov    $0xffffffffffffffec,%rax
   140003bab:	48 0f 44 c8          	cmove  %rax,%rcx
   140003baf:	48 8b c1             	mov    %rcx,%rax
   140003bb2:	4c 8b b4 24 38 01 00 	mov    0x138(%rsp),%r14
   140003bb9:	00 
   140003bba:	4c 8b a4 24 40 01 00 	mov    0x140(%rsp),%r12
   140003bc1:	00 
   140003bc2:	48 8b bc 24 48 01 00 	mov    0x148(%rsp),%rdi
   140003bc9:	00 
   140003bca:	48 8b b4 24 50 01 00 	mov    0x150(%rsp),%rsi
   140003bd1:	00 
   140003bd2:	48 8b 9c 24 70 01 00 	mov    0x170(%rsp),%rbx
   140003bd9:	00 
   140003bda:	4c 8b bc 24 30 01 00 	mov    0x130(%rsp),%r15
   140003be1:	00 
   140003be2:	48 81 c4 58 01 00 00 	add    $0x158,%rsp
   140003be9:	41 5d                	pop    %r13
   140003beb:	5d                   	pop    %rbp
   140003bec:	c3                   	retq   
   140003bed:	cc                   	int3   
   140003bee:	cc                   	int3   
   140003bef:	cc                   	int3   
   140003bf0:	48 89 5c 24 08       	mov    %rbx,0x8(%rsp)
   140003bf5:	48 89 6c 24 10       	mov    %rbp,0x10(%rsp)
   140003bfa:	48 89 74 24 18       	mov    %rsi,0x18(%rsp)
   140003bff:	48 89 7c 24 20       	mov    %rdi,0x20(%rsp)
   140003c04:	41 56                	push   %r14
   140003c06:	48 83 ec 30          	sub    $0x30,%rsp
   140003c0a:	48 8b 5c 24 60       	mov    0x60(%rsp),%rbx
   140003c0f:	49 8b f9             	mov    %r9,%rdi
   140003c12:	4c 8b 4c 24 68       	mov    0x68(%rsp),%r9
   140003c17:	49 8b e8             	mov    %r8,%rbp
   140003c1a:	4c 8b f2             	mov    %rdx,%r14
   140003c1d:	4c 8b c3             	mov    %rbx,%r8
   140003c20:	48 8b d7             	mov    %rdi,%rdx
   140003c23:	48 8b f1             	mov    %rcx,%rsi
   140003c26:	e8 a5 eb ff ff       	callq  0x1400027d0
   140003c2b:	48 83 f8 88          	cmp    $0xffffffffffffff88,%rax
   140003c2f:	77 28                	ja     0x140003c59
   140003c31:	48 3b c3             	cmp    %rbx,%rax
   140003c34:	72 09                	jb     0x140003c3f
   140003c36:	48 c7 c0 b8 ff ff ff 	mov    $0xffffffffffffffb8,%rax
   140003c3d:	eb 1a                	jmp    0x140003c59
   140003c3f:	48 2b d8             	sub    %rax,%rbx
   140003c42:	48 89 74 24 20       	mov    %rsi,0x20(%rsp)
   140003c47:	4c 8b cb             	mov    %rbx,%r9
   140003c4a:	4c 8d 04 38          	lea    (%rax,%rdi,1),%r8
   140003c4e:	48 8b d5             	mov    %rbp,%rdx
   140003c51:	49 8b ce             	mov    %r14,%rcx
   140003c54:	e8 d7 f1 ff ff       	callq  0x140002e30
   140003c59:	48 8b 5c 24 40       	mov    0x40(%rsp),%rbx
   140003c5e:	48 8b 6c 24 48       	mov    0x48(%rsp),%rbp
   140003c63:	48 8b 74 24 50       	mov    0x50(%rsp),%rsi
   140003c68:	48 8b 7c 24 58       	mov    0x58(%rsp),%rdi
   140003c6d:	48 83 c4 30          	add    $0x30,%rsp
   140003c71:	41 5e                	pop    %r14
   140003c73:	c3                   	retq   
   140003c74:	cc                   	int3   
   140003c75:	cc                   	int3   
   140003c76:	cc                   	int3   
   140003c77:	cc                   	int3   
   140003c78:	cc                   	int3   
   140003c79:	cc                   	int3   
   140003c7a:	cc                   	int3   
   140003c7b:	cc                   	int3   
   140003c7c:	cc                   	int3   
   140003c7d:	cc                   	int3   
   140003c7e:	cc                   	int3   
   140003c7f:	cc                   	int3   
   140003c80:	40 55                	rex push %rbp
   140003c82:	56                   	push   %rsi
   140003c83:	57                   	push   %rdi
   140003c84:	48 8d 6c 24 d9       	lea    -0x27(%rsp),%rbp
   140003c89:	48 81 ec f0 00 00 00 	sub    $0xf0,%rsp
   140003c90:	48 8b 05 71 83 02 00 	mov    0x28371(%rip),%rax        # 0x14002c008
   140003c97:	48 33 c4             	xor    %rsp,%rax
   140003c9a:	48 89 45 f7          	mov    %rax,-0x9(%rbp)
   140003c9e:	48 8b 45 67          	mov    0x67(%rbp),%rax
   140003ca2:	4d 8b d8             	mov    %r8,%r11
   140003ca5:	8b 75 7f             	mov    0x7f(%rbp),%esi
   140003ca8:	44 8b d6             	mov    %esi,%r10d
   140003cab:	41 8b f9             	mov    %r9d,%edi
   140003cae:	44 2b d2             	sub    %edx,%r10d
   140003cb1:	48 89 44 24 28       	mov    %rax,0x28(%rsp)
   140003cb6:	4c 8b c9             	mov    %rcx,%r9
   140003cb9:	48 8b 45 6f          	mov    0x6f(%rbp),%rax
   140003cbd:	4c 89 44 24 30       	mov    %r8,0x30(%rsp)
   140003cc2:	44 8b c6             	mov    %esi,%r8d
   140003cc5:	44 2b 45 77          	sub    0x77(%rbp),%r8d
   140003cc9:	48 89 44 24 38       	mov    %rax,0x38(%rsp)
   140003cce:	89 7c 24 0c          	mov    %edi,0xc(%rsp)
   140003cd2:	89 54 24 08          	mov    %edx,0x8(%rsp)
   140003cd6:	48 89 4c 24 48       	mov    %rcx,0x48(%rsp)
   140003cdb:	44 89 54 24 1c       	mov    %r10d,0x1c(%rsp)
   140003ce0:	44 89 44 24 18       	mov    %r8d,0x18(%rsp)
   140003ce5:	0f 10 00             	movups (%rax),%xmm0
   140003ce8:	0f 10 48 10          	movups 0x10(%rax),%xmm1
   140003cec:	0f 11 45 bf          	movups %xmm0,-0x41(%rbp)
   140003cf0:	0f 10 40 20          	movups 0x20(%rax),%xmm0
   140003cf4:	8b 40 30             	mov    0x30(%rax),%eax
   140003cf7:	89 45 ef             	mov    %eax,-0x11(%rbp)
   140003cfa:	0f 11 45 df          	movups %xmm0,-0x21(%rbp)
   140003cfe:	0f 11 4d cf          	movups %xmm1,-0x31(%rbp)
   140003d02:	85 ff                	test   %edi,%edi
   140003d04:	0f 84 10 02 00 00    	je     0x140003f1a
   140003d0a:	48 89 9c 24 28 01 00 	mov    %rbx,0x128(%rsp)
   140003d11:	00 
   140003d12:	4c 89 a4 24 e8 00 00 	mov    %r12,0xe8(%rsp)
   140003d19:	00 
   140003d1a:	4c 89 ac 24 e0 00 00 	mov    %r13,0xe0(%rsp)
   140003d21:	00 
   140003d22:	4d 8b eb             	mov    %r11,%r13
   140003d25:	4c 89 b4 24 d8 00 00 	mov    %r14,0xd8(%rsp)
   140003d2c:	00 
   140003d2d:	48 89 7c 24 20       	mov    %rdi,0x20(%rsp)
   140003d32:	bf 01 00 00 00       	mov    $0x1,%edi
   140003d37:	4c 89 bc 24 d0 00 00 	mov    %r15,0xd0(%rsp)
   140003d3e:	00 
   140003d3f:	90                   	nop
   140003d40:	41 0f b6 45 01       	movzbl 0x1(%r13),%eax
   140003d45:	4c 8d 5d bf          	lea    -0x41(%rbp),%r11
   140003d49:	45 8b 34 83          	mov    (%r11,%rax,4),%r14d
   140003d4d:	4d 8d 1c 83          	lea    (%r11,%rax,4),%r11
   140003d51:	45 0f b6 65 00       	movzbl 0x0(%r13),%r12d
   140003d56:	8b de                	mov    %esi,%ebx
   140003d58:	2b d8                	sub    %eax,%ebx
   140003d5a:	44 89 74 24 10       	mov    %r14d,0x10(%rsp)
   140003d5f:	8b ca                	mov    %edx,%ecx
   140003d61:	4c 89 5c 24 40       	mov    %r11,0x40(%rsp)
   140003d66:	2b cb                	sub    %ebx,%ecx
   140003d68:	44 8b ff             	mov    %edi,%r15d
   140003d6b:	41 d3 e7             	shl    %cl,%r15d
   140003d6e:	44 89 7c 24 14       	mov    %r15d,0x14(%rsp)
   140003d73:	41 3b c8             	cmp    %r8d,%ecx
   140003d76:	0f 82 35 01 00 00    	jb     0x140003eb1
   140003d7c:	48 8b 4c 24 30       	mov    0x30(%rsp),%rcx
   140003d81:	42 8d 14 13          	lea    (%rbx,%r10,1),%edx
   140003d85:	83 fa 01             	cmp    $0x1,%edx
   140003d88:	4f 8d 0c b1          	lea    (%r9,%r14,4),%r9
   140003d8c:	0f 4c d7             	cmovl  %edi,%edx
   140003d8f:	48 63 c2             	movslq %edx,%rax
   140003d92:	48 8d 3c 85 00 00 00 	lea    0x0(,%rax,4),%rdi
   140003d99:	00 
   140003d9a:	48 8b 44 24 28       	mov    0x28(%rsp),%rax
   140003d9f:	44 8b 04 07          	mov    (%rdi,%rax,1),%r8d
   140003da3:	8b c3                	mov    %ebx,%eax
   140003da5:	4e 8d 14 41          	lea    (%rcx,%r8,2),%r10
   140003da9:	48 6b c8 34          	imul   $0x34,%rax,%rcx
   140003dad:	48 8b 44 24 38       	mov    0x38(%rsp),%rax
   140003db2:	0f 10 04 01          	movups (%rcx,%rax,1),%xmm0
   140003db6:	0f 10 4c 01 10       	movups 0x10(%rcx,%rax,1),%xmm1
   140003dbb:	0f 11 45 87          	movups %xmm0,-0x79(%rbp)
   140003dbf:	0f 10 44 01 20       	movups 0x20(%rcx,%rax,1),%xmm0
   140003dc4:	8b 44 01 30          	mov    0x30(%rcx,%rax,1),%eax
   140003dc8:	89 45 b7             	mov    %eax,-0x49(%rbp)
   140003dcb:	0f 11 45 a7          	movups %xmm0,-0x59(%rbp)
   140003dcf:	0f 11 4d 97          	movups %xmm1,-0x69(%rbp)
   140003dd3:	83 fa 01             	cmp    $0x1,%edx
   140003dd6:	7e 20                	jle    0x140003df8
   140003dd8:	8b 44 3d 87          	mov    -0x79(%rbp,%rdi,1),%eax
   140003ddc:	66 44 89 24 24       	mov    %r12w,(%rsp)
   140003de1:	88 5c 24 02          	mov    %bl,0x2(%rsp)
   140003de5:	c6 44 24 03 01       	movb   $0x1,0x3(%rsp)
   140003dea:	85 c0                	test   %eax,%eax
   140003dec:	74 0a                	je     0x140003df8
   140003dee:	8b c8                	mov    %eax,%ecx
   140003df0:	49 8b f9             	mov    %r9,%rdi
   140003df3:	8b 04 24             	mov    (%rsp),%eax
   140003df6:	f3 ab                	rep stos %eax,%es:(%rdi)
   140003df8:	8b 44 24 0c          	mov    0xc(%rsp),%eax
   140003dfc:	41 2b c0             	sub    %r8d,%eax
   140003dff:	0f 84 97 00 00 00    	je     0x140003e9c
   140003e05:	44 8b 74 24 08       	mov    0x8(%rsp),%r14d
   140003e0a:	41 bf 00 01 00 00    	mov    $0x100,%r15d
   140003e10:	c6 44 24 03 02       	movb   $0x2,0x3(%rsp)
   140003e15:	44 8b d8             	mov    %eax,%r11d
   140003e18:	0f 1f 84 00 00 00 00 	nopl   0x0(%rax,%rax,1)
   140003e1f:	00 
   140003e20:	41 0f b6 42 01       	movzbl 0x1(%r10),%eax
   140003e25:	8b fe                	mov    %esi,%edi
   140003e27:	2b f8                	sub    %eax,%edi
   140003e29:	48 8d 75 87          	lea    -0x79(%rbp),%rsi
   140003e2d:	8b 14 86             	mov    (%rsi,%rax,4),%edx
   140003e30:	48 8d 34 86          	lea    (%rsi,%rax,4),%rsi
   140003e34:	41 0f b6 02          	movzbl (%r10),%eax
   140003e38:	41 8b ce             	mov    %r14d,%ecx
   140003e3b:	2b cf                	sub    %edi,%ecx
   140003e3d:	41 b8 01 00 00 00    	mov    $0x1,%r8d
   140003e43:	2b cb                	sub    %ebx,%ecx
   140003e45:	41 d3 e0             	shl    %cl,%r8d
   140003e48:	41 0f b7 cf          	movzwl %r15w,%ecx
   140003e4c:	44 03 c2             	add    %edx,%r8d
   140003e4f:	0f af c1             	imul   %ecx,%eax
   140003e52:	66 41 03 c4          	add    %r12w,%ax
   140003e56:	40 02 fb             	add    %bl,%dil
   140003e59:	66 89 04 24          	mov    %ax,(%rsp)
   140003e5d:	40 88 7c 24 02       	mov    %dil,0x2(%rsp)
   140003e62:	8b 04 24             	mov    (%rsp),%eax
   140003e65:	66 66 66 0f 1f 84 00 	data16 data16 nopw 0x0(%rax,%rax,1)
   140003e6c:	00 00 00 00 
   140003e70:	8b ca                	mov    %edx,%ecx
   140003e72:	ff c2                	inc    %edx
   140003e74:	41 89 04 89          	mov    %eax,(%r9,%rcx,4)
   140003e78:	41 3b d0             	cmp    %r8d,%edx
   140003e7b:	72 f3                	jb     0x140003e70
   140003e7d:	49 83 c2 02          	add    $0x2,%r10
   140003e81:	44 89 06             	mov    %r8d,(%rsi)
   140003e84:	8b 75 7f             	mov    0x7f(%rbp),%esi
   140003e87:	49 83 eb 01          	sub    $0x1,%r11
   140003e8b:	75 93                	jne    0x140003e20
   140003e8d:	44 8b 74 24 10       	mov    0x10(%rsp),%r14d
   140003e92:	44 8b 7c 24 14       	mov    0x14(%rsp),%r15d
   140003e97:	4c 8b 5c 24 40       	mov    0x40(%rsp),%r11
   140003e9c:	4c 8b 4c 24 48       	mov    0x48(%rsp),%r9
   140003ea1:	43 8d 14 37          	lea    (%r15,%r14,1),%edx
   140003ea5:	44 8b 44 24 18       	mov    0x18(%rsp),%r8d
   140003eaa:	44 8b 54 24 1c       	mov    0x1c(%rsp),%r10d
   140003eaf:	eb 25                	jmp    0x140003ed6
   140003eb1:	43 8d 14 37          	lea    (%r15,%r14,1),%edx
   140003eb5:	66 44 89 64 24 04    	mov    %r12w,0x4(%rsp)
   140003ebb:	88 5c 24 06          	mov    %bl,0x6(%rsp)
   140003ebf:	c6 44 24 07 01       	movb   $0x1,0x7(%rsp)
   140003ec4:	44 3b f2             	cmp    %edx,%r14d
   140003ec7:	73 12                	jae    0x140003edb
   140003ec9:	8b 44 24 04          	mov    0x4(%rsp),%eax
   140003ecd:	4b 8d 3c b1          	lea    (%r9,%r14,4),%rdi
   140003ed1:	41 8b cf             	mov    %r15d,%ecx
   140003ed4:	f3 ab                	rep stos %eax,%es:(%rdi)
   140003ed6:	bf 01 00 00 00       	mov    $0x1,%edi
   140003edb:	49 83 c5 02          	add    $0x2,%r13
   140003edf:	41 89 13             	mov    %edx,(%r11)
   140003ee2:	48 83 6c 24 20 01    	subq   $0x1,0x20(%rsp)
   140003ee8:	8b 54 24 08          	mov    0x8(%rsp),%edx
   140003eec:	0f 85 4e fe ff ff    	jne    0x140003d40
   140003ef2:	4c 8b bc 24 d0 00 00 	mov    0xd0(%rsp),%r15
   140003ef9:	00 
   140003efa:	4c 8b b4 24 d8 00 00 	mov    0xd8(%rsp),%r14
   140003f01:	00 
   140003f02:	4c 8b ac 24 e0 00 00 	mov    0xe0(%rsp),%r13
   140003f09:	00 
   140003f0a:	4c 8b a4 24 e8 00 00 	mov    0xe8(%rsp),%r12
   140003f11:	00 
   140003f12:	48 8b 9c 24 28 01 00 	mov    0x128(%rsp),%rbx
   140003f19:	00 
   140003f1a:	48 8b 4d f7          	mov    -0x9(%rbp),%rcx
   140003f1e:	48 33 cc             	xor    %rsp,%rcx
   140003f21:	e8 9a 85 00 00       	callq  0x14000c4c0
   140003f26:	48 81 c4 f0 00 00 00 	add    $0xf0,%rsp
   140003f2d:	5f                   	pop    %rdi
   140003f2e:	5e                   	pop    %rsi
   140003f2f:	5d                   	pop    %rbp
   140003f30:	c3                   	retq   
   140003f31:	cc                   	int3   
   140003f32:	cc                   	int3   
   140003f33:	cc                   	int3   
   140003f34:	cc                   	int3   
   140003f35:	cc                   	int3   
   140003f36:	cc                   	int3   
   140003f37:	cc                   	int3   
   140003f38:	cc                   	int3   
   140003f39:	cc                   	int3   
   140003f3a:	cc                   	int3   
   140003f3b:	cc                   	int3   
   140003f3c:	cc                   	int3   
   140003f3d:	cc                   	int3   
   140003f3e:	cc                   	int3   
   140003f3f:	cc                   	int3   
   140003f40:	48 89 5c 24 18       	mov    %rbx,0x18(%rsp)
   140003f45:	55                   	push   %rbp
   140003f46:	56                   	push   %rsi
   140003f47:	57                   	push   %rdi
   140003f48:	41 54                	push   %r12
   140003f4a:	41 55                	push   %r13
   140003f4c:	41 56                	push   %r14
   140003f4e:	41 57                	push   %r15
   140003f50:	48 81 ec 00 02 00 00 	sub    $0x200,%rsp
   140003f57:	48 8b 05 aa 80 02 00 	mov    0x280aa(%rip),%rax        # 0x14002c008
   140003f5e:	48 33 c4             	xor    %rsp,%rax
   140003f61:	48 89 84 24 f0 01 00 	mov    %rax,0x1f0(%rsp)
   140003f68:	00 
   140003f69:	48 81 bc 24 60 02 00 	cmpq   $0x5dc,0x260(%rsp)
   140003f70:	00 dc 05 00 00 
   140003f75:	49 8d b9 70 02 00 00 	lea    0x270(%r9),%rdi
   140003f7c:	8b 01                	mov    (%rcx),%eax
   140003f7e:	4d 8d b1 dc 04 00 00 	lea    0x4dc(%r9),%r14
   140003f85:	44 0f b6 e0          	movzbl %al,%r12d
   140003f89:	49 8b f1             	mov    %r9,%rsi
   140003f8c:	89 44 24 54          	mov    %eax,0x54(%rsp)
   140003f90:	49 8b d8             	mov    %r8,%rbx
   140003f93:	48 8d 41 04          	lea    0x4(%rcx),%rax
   140003f97:	48 89 4c 24 68       	mov    %rcx,0x68(%rsp)
   140003f9c:	48 89 44 24 60       	mov    %rax,0x60(%rsp)
   140003fa1:	48 8b ea             	mov    %rdx,%rbp
   140003fa4:	44 89 64 24 58       	mov    %r12d,0x58(%rsp)
   140003fa9:	0f 82 ac 02 00 00    	jb     0x14000425b
   140003faf:	33 d2                	xor    %edx,%edx
   140003fb1:	4d 8d b9 a8 02 00 00 	lea    0x2a8(%r9),%r15
   140003fb8:	48 8b cf             	mov    %rdi,%rcx
   140003fbb:	44 8d 42 6c          	lea    0x6c(%rdx),%r8d
   140003fbf:	e8 9c 93 00 00       	callq  0x14000d360
   140003fc4:	41 83 fc 0c          	cmp    $0xc,%r12d
   140003fc8:	0f 87 8d 02 00 00    	ja     0x14000425b
   140003fce:	48 8d 84 24 80 00 00 	lea    0x80(%rsp),%rax
   140003fd5:	00 
   140003fd6:	4c 8b c7             	mov    %rdi,%r8
   140003fd9:	48 89 44 24 38       	mov    %rax,0x38(%rsp)
   140003fde:	4c 8d 4c 24 5c       	lea    0x5c(%rsp),%r9
   140003fe3:	48 89 5c 24 30       	mov    %rbx,0x30(%rsp)
   140003fe8:	48 8d 44 24 50       	lea    0x50(%rsp),%rax
   140003fed:	48 89 6c 24 28       	mov    %rbp,0x28(%rsp)
   140003ff2:	49 8b ce             	mov    %r14,%rcx
   140003ff5:	48 89 44 24 20       	mov    %rax,0x20(%rsp)
   140003ffa:	e8 f1 e5 ff ff       	callq  0x1400025f0
   140003fff:	48 89 44 24 70       	mov    %rax,0x70(%rsp)
   140004004:	48 83 f8 88          	cmp    $0xffffffffffffff88,%rax
   140004008:	0f 87 54 02 00 00    	ja     0x140004262
   14000400e:	8b 44 24 50          	mov    0x50(%rsp),%eax
   140004012:	41 3b c4             	cmp    %r12d,%eax
   140004015:	0f 87 40 02 00 00    	ja     0x14000425b
   14000401b:	83 3c 87 00          	cmpl   $0x0,(%rdi,%rax,4)
   14000401f:	8b d8                	mov    %eax,%ebx
   140004021:	75 08                	jne    0x14000402b
   140004023:	ff cb                	dec    %ebx
   140004025:	83 3c 9f 00          	cmpl   $0x0,(%rdi,%rbx,4)
   140004029:	74 f8                	je     0x140004023
   14000402b:	45 33 d2             	xor    %r10d,%r10d
   14000402e:	8d 6b 01             	lea    0x1(%rbx),%ebp
   140004031:	45 8b e2             	mov    %r10d,%r12d
   140004034:	83 fd 01             	cmp    $0x1,%ebp
   140004037:	76 2a                	jbe    0x140004063
   140004039:	4c 8b c7             	mov    %rdi,%r8
   14000403c:	8b d3                	mov    %ebx,%edx
   14000403e:	4d 2b c7             	sub    %r15,%r8
   140004041:	49 8d 4f 04          	lea    0x4(%r15),%rcx
   140004045:	66 66 66 0f 1f 84 00 	data16 data16 nopw 0x0(%rax,%rax,1)
   14000404c:	00 00 00 00 
   140004050:	41 8b c4             	mov    %r12d,%eax
   140004053:	45 03 24 08          	add    (%r8,%rcx,1),%r12d
   140004057:	89 01                	mov    %eax,(%rcx)
   140004059:	48 8d 49 04          	lea    0x4(%rcx),%rcx
   14000405d:	48 83 ea 01          	sub    $0x1,%rdx
   140004061:	75 ed                	jne    0x140004050
   140004063:	44 8b 4c 24 5c       	mov    0x5c(%rsp),%r9d
   140004068:	45 8b c2             	mov    %r10d,%r8d
   14000406b:	45 89 27             	mov    %r12d,(%r15)
   14000406e:	45 85 c9             	test   %r9d,%r9d
   140004071:	74 37                	je     0x1400040aa
   140004073:	0f 1f 40 00          	nopl   0x0(%rax)
   140004077:	66 0f 1f 84 00 00 00 	nopw   0x0(%rax,%rax,1)
   14000407e:	00 00 
   140004080:	41 0f b6 16          	movzbl (%r14),%edx
   140004084:	4d 8d 76 01          	lea    0x1(%r14),%r14
   140004088:	41 8b 0c 97          	mov    (%r15,%rdx,4),%ecx
   14000408c:	8d 41 01             	lea    0x1(%rcx),%eax
   14000408f:	41 89 04 97          	mov    %eax,(%r15,%rdx,4)
   140004093:	44 88 84 4e dc 02 00 	mov    %r8b,0x2dc(%rsi,%rcx,2)
   14000409a:	00 
   14000409b:	41 ff c0             	inc    %r8d
   14000409e:	88 94 4e dd 02 00 00 	mov    %dl,0x2dd(%rsi,%rcx,2)
   1400040a5:	45 3b c1             	cmp    %r9d,%r8d
   1400040a8:	72 d6                	jb     0x140004080
   1400040aa:	44 8b 74 24 50       	mov    0x50(%rsp),%r14d
   1400040af:	41 b8 01 00 00 00    	mov    $0x1,%r8d
   1400040b5:	45 89 17             	mov    %r10d,(%r15)
   1400040b8:	44 8b 7c 24 58       	mov    0x58(%rsp),%r15d
   1400040bd:	41 3b e8             	cmp    %r8d,%ebp
   1400040c0:	76 31                	jbe    0x1400040f3
   1400040c2:	48 2b fe             	sub    %rsi,%rdi
   1400040c5:	4c 8d 4e 04          	lea    0x4(%rsi),%r9
   1400040c9:	45 8b df             	mov    %r15d,%r11d
   1400040cc:	45 2b de             	sub    %r14d,%r11d
   1400040cf:	90                   	nop
   1400040d0:	42 8b 04 0f          	mov    (%rdi,%r9,1),%eax
   1400040d4:	41 8d 4b ff          	lea    -0x1(%r11),%ecx
   1400040d8:	41 03 c8             	add    %r8d,%ecx
   1400040db:	4d 8d 49 04          	lea    0x4(%r9),%r9
   1400040df:	d3 e0                	shl    %cl,%eax
   1400040e1:	41 8b d2             	mov    %r10d,%edx
   1400040e4:	44 03 d0             	add    %eax,%r10d
   1400040e7:	41 89 51 fc          	mov    %edx,-0x4(%r9)
   1400040eb:	41 ff c0             	inc    %r8d
   1400040ee:	44 3b c5             	cmp    %ebp,%r8d
   1400040f1:	72 dd                	jb     0x1400040d0
   1400040f3:	45 8b d6             	mov    %r14d,%r10d
   1400040f6:	45 8b f7             	mov    %r15d,%r14d
   1400040f9:	44 2b d3             	sub    %ebx,%r10d
   1400040fc:	41 ff c2             	inc    %r10d
   1400040ff:	45 2b f2             	sub    %r10d,%r14d
   140004102:	41 ff c6             	inc    %r14d
   140004105:	45 3b d6             	cmp    %r14d,%r10d
   140004108:	0f 83 fb 00 00 00    	jae    0x140004209
   14000410e:	41 8b c2             	mov    %r10d,%eax
   140004111:	4c 6b d8 34          	imul   $0x34,%rax,%r11
   140004115:	4c 03 de             	add    %rsi,%r11
   140004118:	48 6b f8 cc          	imul   $0xffffffffffffffcc,%rax,%rdi
   14000411c:	0f 1f 40 00          	nopl   0x0(%rax)
   140004120:	ba 01 00 00 00       	mov    $0x1,%edx
   140004125:	66 41 0f 6e ca       	movd   %r10d,%xmm1
   14000412a:	3b ea                	cmp    %edx,%ebp
   14000412c:	0f 86 c3 00 00 00    	jbe    0x1400041f5
   140004132:	83 fb 10             	cmp    $0x10,%ebx
   140004135:	0f 82 8a 00 00 00    	jb     0x1400041c5
   14000413b:	8b c3                	mov    %ebx,%eax
   14000413d:	4c 8d 4e 04          	lea    0x4(%rsi),%r9
   140004141:	48 8d 0c 86          	lea    (%rsi,%rax,4),%rcx
   140004145:	4d 8d 04 83          	lea    (%r11,%rax,4),%r8
   140004149:	49 8d 43 04          	lea    0x4(%r11),%rax
   14000414d:	48 3b c1             	cmp    %rcx,%rax
   140004150:	77 05                	ja     0x140004157
   140004152:	4d 3b c1             	cmp    %r9,%r8
   140004155:	73 6e                	jae    0x1400041c5
   140004157:	8b c3                	mov    %ebx,%eax
   140004159:	44 8b c5             	mov    %ebp,%r8d
   14000415c:	83 e0 0f             	and    $0xf,%eax
   14000415f:	44 2b c0             	sub    %eax,%r8d
   140004162:	41 b9 09 00 00 00    	mov    $0x9,%r9d
   140004168:	0f 1f 84 00 00 00 00 	nopl   0x0(%rax,%rax,1)
   14000416f:	00 
   140004170:	8b c2                	mov    %edx,%eax
   140004172:	83 c2 10             	add    $0x10,%edx
   140004175:	f3 0f 6f 04 86       	movdqu (%rsi,%rax,4),%xmm0
   14000417a:	66 0f d2 c1          	psrld  %xmm1,%xmm0
   14000417e:	f3 41 0f 7f 04 83    	movdqu %xmm0,(%r11,%rax,4)
   140004184:	41 8d 41 fc          	lea    -0x4(%r9),%eax
   140004188:	f3 0f 6f 04 86       	movdqu (%rsi,%rax,4),%xmm0
   14000418d:	66 0f d2 c1          	psrld  %xmm1,%xmm0
   140004191:	f3 41 0f 7f 04 83    	movdqu %xmm0,(%r11,%rax,4)
   140004197:	41 8b c1             	mov    %r9d,%eax
   14000419a:	f3 0f 6f 04 86       	movdqu (%rsi,%rax,4),%xmm0
   14000419f:	66 0f d2 c1          	psrld  %xmm1,%xmm0
   1400041a3:	f3 41 0f 7f 04 83    	movdqu %xmm0,(%r11,%rax,4)
   1400041a9:	41 8d 41 04          	lea    0x4(%r9),%eax
   1400041ad:	41 83 c1 10          	add    $0x10,%r9d
   1400041b1:	f3 0f 6f 04 86       	movdqu (%rsi,%rax,4),%xmm0
   1400041b6:	66 0f d2 c1          	psrld  %xmm1,%xmm0
   1400041ba:	f3 41 0f 7f 04 83    	movdqu %xmm0,(%r11,%rax,4)
   1400041c0:	41 3b d0             	cmp    %r8d,%edx
   1400041c3:	72 ab                	jb     0x140004170
   1400041c5:	3b d5                	cmp    %ebp,%edx
   1400041c7:	73 2c                	jae    0x1400041f5
   1400041c9:	8b c2                	mov    %edx,%eax
   1400041cb:	44 8b c5             	mov    %ebp,%r8d
   1400041ce:	44 2b c2             	sub    %edx,%r8d
   1400041d1:	49 8d 04 83          	lea    (%r11,%rax,4),%rax
   1400041d5:	66 66 66 0f 1f 84 00 	data16 data16 nopw 0x0(%rax,%rax,1)
   1400041dc:	00 00 00 00 
   1400041e0:	8b 14 07             	mov    (%rdi,%rax,1),%edx
   1400041e3:	48 8d 40 04          	lea    0x4(%rax),%rax
   1400041e7:	41 8b ca             	mov    %r10d,%ecx
   1400041ea:	d3 ea                	shr    %cl,%edx
   1400041ec:	89 50 fc             	mov    %edx,-0x4(%rax)
   1400041ef:	49 83 e8 01          	sub    $0x1,%r8
   1400041f3:	75 eb                	jne    0x1400041e0
   1400041f5:	41 ff c2             	inc    %r10d
   1400041f8:	49 83 c3 34          	add    $0x34,%r11
   1400041fc:	48 83 ef 34          	sub    $0x34,%rdi
   140004200:	45 3b d6             	cmp    %r14d,%r10d
   140004203:	0f 82 17 ff ff ff    	jb     0x140004120
   140004209:	8b 44 24 50          	mov    0x50(%rsp),%eax
   14000420d:	4c 8d 86 dc 02 00 00 	lea    0x2dc(%rsi),%r8
   140004214:	48 8b 4c 24 60       	mov    0x60(%rsp),%rcx
   140004219:	ff c0                	inc    %eax
   14000421b:	89 44 24 38          	mov    %eax,0x38(%rsp)
   14000421f:	45 8b cc             	mov    %r12d,%r9d
   140004222:	89 5c 24 30          	mov    %ebx,0x30(%rsp)
   140004226:	48 8d 86 a4 02 00 00 	lea    0x2a4(%rsi),%rax
   14000422d:	48 89 74 24 28       	mov    %rsi,0x28(%rsp)
   140004232:	41 8b d7             	mov    %r15d,%edx
   140004235:	48 89 44 24 20       	mov    %rax,0x20(%rsp)
   14000423a:	e8 41 fa ff ff       	callq  0x140003c80
   14000423f:	48 8b 4c 24 68       	mov    0x68(%rsp),%rcx
   140004244:	44 88 7c 24 56       	mov    %r15b,0x56(%rsp)
   140004249:	c6 44 24 55 01       	movb   $0x1,0x55(%rsp)
   14000424e:	8b 44 24 54          	mov    0x54(%rsp),%eax
   140004252:	89 01                	mov    %eax,(%rcx)
   140004254:	48 8b 44 24 70       	mov    0x70(%rsp),%rax
   140004259:	eb 07                	jmp    0x140004262
   14000425b:	48 c7 c0 d4 ff ff ff 	mov    $0xffffffffffffffd4,%rax
   140004262:	48 8b 8c 24 f0 01 00 	mov    0x1f0(%rsp),%rcx
   140004269:	00 
   14000426a:	48 33 cc             	xor    %rsp,%rcx
   14000426d:	e8 4e 82 00 00       	callq  0x14000c4c0
   140004272:	48 8b 9c 24 50 02 00 	mov    0x250(%rsp),%rbx
   140004279:	00 
   14000427a:	48 81 c4 00 02 00 00 	add    $0x200,%rsp
   140004281:	41 5f                	pop    %r15
   140004283:	41 5e                	pop    %r14
   140004285:	41 5d                	pop    %r13
   140004287:	41 5c                	pop    %r12
   140004289:	5f                   	pop    %rdi
   14000428a:	5e                   	pop    %rsi
   14000428b:	5d                   	pop    %rbp
   14000428c:	c3                   	retq   
   14000428d:	cc                   	int3   
   14000428e:	cc                   	int3   
   14000428f:	cc                   	int3   
   140004290:	48 89 54 24 10       	mov    %rdx,0x10(%rsp)
   140004295:	53                   	push   %rbx
   140004296:	57                   	push   %rdi
   140004297:	48 83 ec 68          	sub    $0x68,%rsp
   14000429b:	49 8b c0             	mov    %r8,%rax
   14000429e:	48 8b fa             	mov    %rdx,%rdi
   1400042a1:	48 8b d9             	mov    %rcx,%rbx
   1400042a4:	49 83 f9 01          	cmp    $0x1,%r9
   1400042a8:	73 0e                	jae    0x1400042b8
   1400042aa:	48 c7 c0 b8 ff ff ff 	mov    $0xffffffffffffffb8,%rax
   1400042b1:	48 83 c4 68          	add    $0x68,%rsp
   1400042b5:	5f                   	pop    %rdi
   1400042b6:	5b                   	pop    %rbx
   1400042b7:	c3                   	retq   
   1400042b8:	4d 8b c1             	mov    %r9,%r8
   1400042bb:	48 8d 4c 24 20       	lea    0x20(%rsp),%rcx
   1400042c0:	48 8b d0             	mov    %rax,%rdx
   1400042c3:	e8 f8 cd ff ff       	callq  0x1400010c0
   1400042c8:	48 83 f8 88          	cmp    $0xffffffffffffff88,%rax
   1400042cc:	0f 87 1a 03 00 00    	ja     0x1400045ec
   1400042d2:	48 8b 84 24 a0 00 00 	mov    0xa0(%rsp),%rax
   1400042d9:	00 
   1400042da:	4c 8b 54 24 30       	mov    0x30(%rsp),%r10
   1400042df:	44 8b 4c 24 28       	mov    0x28(%rsp),%r9d
   1400042e4:	4c 8b 5c 24 20       	mov    0x20(%rsp),%r11
   1400042e9:	48 89 ac 24 80 00 00 	mov    %rbp,0x80(%rsp)
   1400042f0:	00 
   1400042f1:	48 89 b4 24 90 00 00 	mov    %rsi,0x90(%rsp)
   1400042f8:	00 
   1400042f9:	8b 30                	mov    (%rax),%esi
   1400042fb:	4c 89 a4 24 98 00 00 	mov    %r12,0x98(%rsp)
   140004302:	00 
   140004303:	4c 89 6c 24 60       	mov    %r13,0x60(%rsp)
   140004308:	4c 8d 2c 3b          	lea    (%rbx,%rdi,1),%r13
   14000430c:	48 8b 7c 24 38       	mov    0x38(%rsp),%rdi
   140004311:	49 8d 6d f9          	lea    -0x7(%r13),%rbp
   140004315:	c1 ee 10             	shr    $0x10,%esi
   140004318:	44 8b e7             	mov    %edi,%r12d
   14000431b:	4c 89 74 24 58       	mov    %r14,0x58(%rsp)
   140004320:	f7 de                	neg    %esi
   140004322:	4c 89 7c 24 50       	mov    %r15,0x50(%rsp)
   140004327:	4c 8d 70 04          	lea    0x4(%rax),%r14
   14000432b:	4c 8b 7c 24 40       	mov    0x40(%rsp),%r15
   140004330:	83 e6 3f             	and    $0x3f,%esi
   140004333:	41 83 f9 40          	cmp    $0x40,%r9d
   140004337:	76 08                	jbe    0x140004341
   140004339:	41 b8 03 00 00 00    	mov    $0x3,%r8d
   14000433f:	eb 60                	jmp    0x1400043a1
   140004341:	4d 3b d7             	cmp    %r15,%r10
   140004344:	72 13                	jb     0x140004359
   140004346:	41 8b c1             	mov    %r9d,%eax
   140004349:	41 83 e1 07          	and    $0x7,%r9d
   14000434d:	48 c1 e8 03          	shr    $0x3,%rax
   140004351:	4c 2b d0             	sub    %rax,%r10
   140004354:	45 33 c0             	xor    %r8d,%r8d
   140004357:	eb 40                	jmp    0x140004399
   140004359:	4c 3b d7             	cmp    %rdi,%r10
   14000435c:	75 0d                	jne    0x14000436b
   14000435e:	41 83 f9 40          	cmp    $0x40,%r9d
   140004362:	45 1b c0             	sbb    %r8d,%r8d
   140004365:	41 83 c0 02          	add    $0x2,%r8d
   140004369:	eb 36                	jmp    0x1400043a1
   14000436b:	41 8b d1             	mov    %r9d,%edx
   14000436e:	49 8b ca             	mov    %r10,%rcx
   140004371:	c1 ea 03             	shr    $0x3,%edx
   140004374:	45 33 c0             	xor    %r8d,%r8d
   140004377:	8b c2                	mov    %edx,%eax
   140004379:	48 2b c8             	sub    %rax,%rcx
   14000437c:	48 3b cf             	cmp    %rdi,%rcx
   14000437f:	73 0d                	jae    0x14000438e
   140004381:	8b 54 24 30          	mov    0x30(%rsp),%edx
   140004385:	41 b8 01 00 00 00    	mov    $0x1,%r8d
   14000438b:	41 2b d4             	sub    %r12d,%edx
   14000438e:	8b c2                	mov    %edx,%eax
   140004390:	4c 2b d0             	sub    %rax,%r10
   140004393:	6b c2 f8             	imul   $0xfffffff8,%edx,%eax
   140004396:	44 03 c8             	add    %eax,%r9d
   140004399:	4d 8b 1a             	mov    (%r10),%r11
   14000439c:	4c 89 54 24 30       	mov    %r10,0x30(%rsp)
   1400043a1:	33 c9                	xor    %ecx,%ecx
   1400043a3:	48 3b dd             	cmp    %rbp,%rbx
   1400043a6:	0f 92 c1             	setb   %cl
   1400043a9:	33 c0                	xor    %eax,%eax
   1400043ab:	45 85 c0             	test   %r8d,%r8d
   1400043ae:	0f 94 c0             	sete   %al
   1400043b1:	85 c8                	test   %ecx,%eax
   1400043b3:	0f 84 b2 00 00 00    	je     0x14000446b
   1400043b9:	41 8b c9             	mov    %r9d,%ecx
   1400043bc:	49 8b c3             	mov    %r11,%rax
   1400043bf:	83 e1 3f             	and    $0x3f,%ecx
   1400043c2:	49 8b d3             	mov    %r11,%rdx
   1400043c5:	48 d3 e0             	shl    %cl,%rax
   1400043c8:	8b ce                	mov    %esi,%ecx
   1400043ca:	48 d3 e8             	shr    %cl,%rax
   1400043cd:	49 8d 0c 86          	lea    (%r14,%rax,4),%rcx
   1400043d1:	41 0f b7 04 86       	movzwl (%r14,%rax,4),%eax
   1400043d6:	66 89 03             	mov    %ax,(%rbx)
   1400043d9:	0f b6 41 02          	movzbl 0x2(%rcx),%eax
   1400043dd:	44 03 c8             	add    %eax,%r9d
   1400043e0:	0f b6 41 03          	movzbl 0x3(%rcx),%eax
   1400043e4:	48 03 d8             	add    %rax,%rbx
   1400043e7:	41 8b c9             	mov    %r9d,%ecx
   1400043ea:	83 e1 3f             	and    $0x3f,%ecx
   1400043ed:	49 8b c3             	mov    %r11,%rax
   1400043f0:	48 d3 e0             	shl    %cl,%rax
   1400043f3:	8b ce                	mov    %esi,%ecx
   1400043f5:	48 d3 e8             	shr    %cl,%rax
   1400043f8:	49 8d 0c 86          	lea    (%r14,%rax,4),%rcx
   1400043fc:	41 0f b7 04 86       	movzwl (%r14,%rax,4),%eax
   140004401:	66 89 03             	mov    %ax,(%rbx)
   140004404:	0f b6 41 02          	movzbl 0x2(%rcx),%eax
   140004408:	44 03 c8             	add    %eax,%r9d
   14000440b:	0f b6 41 03          	movzbl 0x3(%rcx),%eax
   14000440f:	48 03 d8             	add    %rax,%rbx
   140004412:	41 8b c9             	mov    %r9d,%ecx
   140004415:	83 e1 3f             	and    $0x3f,%ecx
   140004418:	48 d3 e2             	shl    %cl,%rdx
   14000441b:	8b ce                	mov    %esi,%ecx
   14000441d:	48 d3 ea             	shr    %cl,%rdx
   140004420:	41 0f b7 04 96       	movzwl (%r14,%rdx,4),%eax
   140004425:	66 89 03             	mov    %ax,(%rbx)
   140004428:	41 0f b6 44 96 03    	movzbl 0x3(%r14,%rdx,4),%eax
   14000442e:	45 0f b6 44 96 02    	movzbl 0x2(%r14,%rdx,4),%r8d
   140004434:	48 03 d8             	add    %rax,%rbx
   140004437:	45 03 c1             	add    %r9d,%r8d
   14000443a:	49 8b c3             	mov    %r11,%rax
   14000443d:	41 8b c8             	mov    %r8d,%ecx
   140004440:	83 e1 3f             	and    $0x3f,%ecx
   140004443:	48 d3 e0             	shl    %cl,%rax
   140004446:	8b ce                	mov    %esi,%ecx
   140004448:	48 d3 e8             	shr    %cl,%rax
   14000444b:	49 8d 0c 86          	lea    (%r14,%rax,4),%rcx
   14000444f:	41 0f b7 04 86       	movzwl (%r14,%rax,4),%eax
   140004454:	66 89 03             	mov    %ax,(%rbx)
   140004457:	44 0f b6 49 02       	movzbl 0x2(%rcx),%r9d
   14000445c:	0f b6 41 03          	movzbl 0x3(%rcx),%eax
   140004460:	45 03 c8             	add    %r8d,%r9d
   140004463:	48 03 d8             	add    %rax,%rbx
   140004466:	e9 c8 fe ff ff       	jmpq   0x140004333
   14000446b:	49 8d 6d fe          	lea    -0x2(%r13),%rbp
   14000446f:	90                   	nop
   140004470:	41 83 f9 40          	cmp    $0x40,%r9d
   140004474:	76 08                	jbe    0x14000447e
   140004476:	41 b8 03 00 00 00    	mov    $0x3,%r8d
   14000447c:	eb 60                	jmp    0x1400044de
   14000447e:	4d 3b d7             	cmp    %r15,%r10
   140004481:	72 13                	jb     0x140004496
   140004483:	41 8b c1             	mov    %r9d,%eax
   140004486:	41 83 e1 07          	and    $0x7,%r9d
   14000448a:	48 c1 e8 03          	shr    $0x3,%rax
   14000448e:	4c 2b d0             	sub    %rax,%r10
   140004491:	45 33 c0             	xor    %r8d,%r8d
   140004494:	eb 40                	jmp    0x1400044d6
   140004496:	4c 3b d7             	cmp    %rdi,%r10
   140004499:	75 0d                	jne    0x1400044a8
   14000449b:	41 83 f9 40          	cmp    $0x40,%r9d
   14000449f:	45 1b c0             	sbb    %r8d,%r8d
   1400044a2:	41 83 c0 02          	add    $0x2,%r8d
   1400044a6:	eb 36                	jmp    0x1400044de
   1400044a8:	41 8b d1             	mov    %r9d,%edx
   1400044ab:	49 8b ca             	mov    %r10,%rcx
   1400044ae:	c1 ea 03             	shr    $0x3,%edx
   1400044b1:	45 33 c0             	xor    %r8d,%r8d
   1400044b4:	8b c2                	mov    %edx,%eax
   1400044b6:	48 2b c8             	sub    %rax,%rcx
   1400044b9:	48 3b cf             	cmp    %rdi,%rcx
   1400044bc:	73 0d                	jae    0x1400044cb
   1400044be:	8b 54 24 30          	mov    0x30(%rsp),%edx
   1400044c2:	41 b8 01 00 00 00    	mov    $0x1,%r8d
   1400044c8:	41 2b d4             	sub    %r12d,%edx
   1400044cb:	8b c2                	mov    %edx,%eax
   1400044cd:	4c 2b d0             	sub    %rax,%r10
   1400044d0:	6b c2 f8             	imul   $0xfffffff8,%edx,%eax
   1400044d3:	44 03 c8             	add    %eax,%r9d
   1400044d6:	4d 8b 1a             	mov    (%r10),%r11
   1400044d9:	4c 89 54 24 30       	mov    %r10,0x30(%rsp)
   1400044de:	33 c9                	xor    %ecx,%ecx
   1400044e0:	48 3b dd             	cmp    %rbp,%rbx
   1400044e3:	0f 96 c1             	setbe  %cl
   1400044e6:	33 c0                	xor    %eax,%eax
   1400044e8:	45 85 c0             	test   %r8d,%r8d
   1400044eb:	0f 94 c0             	sete   %al
   1400044ee:	85 c8                	test   %ecx,%eax
   1400044f0:	74 30                	je     0x140004522
   1400044f2:	41 8b c9             	mov    %r9d,%ecx
   1400044f5:	49 8b d3             	mov    %r11,%rdx
   1400044f8:	83 e1 3f             	and    $0x3f,%ecx
   1400044fb:	48 d3 e2             	shl    %cl,%rdx
   1400044fe:	8b ce                	mov    %esi,%ecx
   140004500:	48 d3 ea             	shr    %cl,%rdx
   140004503:	41 0f b7 04 96       	movzwl (%r14,%rdx,4),%eax
   140004508:	66 89 03             	mov    %ax,(%rbx)
   14000450b:	41 0f b6 44 96 02    	movzbl 0x2(%r14,%rdx,4),%eax
   140004511:	44 03 c8             	add    %eax,%r9d
   140004514:	41 0f b6 44 96 03    	movzbl 0x3(%r14,%rdx,4),%eax
   14000451a:	48 03 d8             	add    %rax,%rbx
   14000451d:	e9 4e ff ff ff       	jmpq   0x140004470
   140004522:	4c 8b 7c 24 50       	mov    0x50(%rsp),%r15
   140004527:	4c 8b a4 24 98 00 00 	mov    0x98(%rsp),%r12
   14000452e:	00 
   14000452f:	48 3b dd             	cmp    %rbp,%rbx
   140004532:	77 3c                	ja     0x140004570
   140004534:	0f 1f 40 00          	nopl   0x0(%rax)
   140004538:	0f 1f 84 00 00 00 00 	nopl   0x0(%rax,%rax,1)
   14000453f:	00 
   140004540:	41 8b c9             	mov    %r9d,%ecx
   140004543:	49 8b d3             	mov    %r11,%rdx
   140004546:	83 e1 3f             	and    $0x3f,%ecx
   140004549:	48 d3 e2             	shl    %cl,%rdx
   14000454c:	8b ce                	mov    %esi,%ecx
   14000454e:	48 d3 ea             	shr    %cl,%rdx
   140004551:	41 0f b7 04 96       	movzwl (%r14,%rdx,4),%eax
   140004556:	66 89 03             	mov    %ax,(%rbx)
   140004559:	41 0f b6 44 96 02    	movzbl 0x2(%r14,%rdx,4),%eax
   14000455f:	44 03 c8             	add    %eax,%r9d
   140004562:	41 0f b6 44 96 03    	movzbl 0x3(%r14,%rdx,4),%eax
   140004568:	48 03 d8             	add    %rax,%rbx
   14000456b:	48 3b dd             	cmp    %rbp,%rbx
   14000456e:	76 d0                	jbe    0x140004540
   140004570:	48 8b ac 24 80 00 00 	mov    0x80(%rsp),%rbp
   140004577:	00 
   140004578:	49 3b dd             	cmp    %r13,%rbx
   14000457b:	4c 8b 6c 24 60       	mov    0x60(%rsp),%r13
   140004580:	73 43                	jae    0x1400045c5
   140004582:	41 8b c9             	mov    %r9d,%ecx
   140004585:	83 e1 3f             	and    $0x3f,%ecx
   140004588:	49 d3 e3             	shl    %cl,%r11
   14000458b:	8b ce                	mov    %esi,%ecx
   14000458d:	49 d3 eb             	shr    %cl,%r11
   140004590:	43 0f b6 04 9e       	movzbl (%r14,%r11,4),%eax
   140004595:	88 03                	mov    %al,(%rbx)
   140004597:	43 80 7c 9e 03 01    	cmpb   $0x1,0x3(%r14,%r11,4)
   14000459d:	75 0b                	jne    0x1400045aa
   14000459f:	43 0f b6 44 9e 02    	movzbl 0x2(%r14,%r11,4),%eax
   1400045a5:	44 03 c8             	add    %eax,%r9d
   1400045a8:	eb 1b                	jmp    0x1400045c5
   1400045aa:	41 83 f9 40          	cmp    $0x40,%r9d
   1400045ae:	73 15                	jae    0x1400045c5
   1400045b0:	43 0f b6 44 9e 02    	movzbl 0x2(%r14,%r11,4),%eax
   1400045b6:	44 03 c8             	add    %eax,%r9d
   1400045b9:	b8 40 00 00 00       	mov    $0x40,%eax
   1400045be:	44 3b c8             	cmp    %eax,%r9d
   1400045c1:	44 0f 47 c8          	cmova  %eax,%r9d
   1400045c5:	4c 8b 74 24 58       	mov    0x58(%rsp),%r14
   1400045ca:	48 8b b4 24 90 00 00 	mov    0x90(%rsp),%rsi
   1400045d1:	00 
   1400045d2:	4c 3b d7             	cmp    %rdi,%r10
   1400045d5:	75 0e                	jne    0x1400045e5
   1400045d7:	48 8b 84 24 88 00 00 	mov    0x88(%rsp),%rax
   1400045de:	00 
   1400045df:	41 83 f9 40          	cmp    $0x40,%r9d
   1400045e3:	74 07                	je     0x1400045ec
   1400045e5:	48 c7 c0 ec ff ff ff 	mov    $0xffffffffffffffec,%rax
   1400045ec:	48 83 c4 68          	add    $0x68,%rsp
   1400045f0:	5f                   	pop    %rdi
   1400045f1:	5b                   	pop    %rbx
   1400045f2:	c3                   	retq   
   1400045f3:	cc                   	int3   
   1400045f4:	cc                   	int3   
   1400045f5:	cc                   	int3   
   1400045f6:	cc                   	int3   
   1400045f7:	cc                   	int3   
   1400045f8:	cc                   	int3   
   1400045f9:	cc                   	int3   
   1400045fa:	cc                   	int3   
   1400045fb:	cc                   	int3   
   1400045fc:	cc                   	int3   
   1400045fd:	cc                   	int3   
   1400045fe:	cc                   	int3   
   1400045ff:	cc                   	int3   
   140004600:	48 89 54 24 10       	mov    %rdx,0x10(%rsp)
   140004605:	48 89 4c 24 08       	mov    %rcx,0x8(%rsp)
   14000460a:	55                   	push   %rbp
   14000460b:	53                   	push   %rbx
   14000460c:	48 8d 6c 24 98       	lea    -0x68(%rsp),%rbp
   140004611:	48 81 ec 68 01 00 00 	sub    $0x168,%rsp
   140004618:	48 8b da             	mov    %rdx,%rbx
   14000461b:	4c 8b d1             	mov    %rcx,%r10
   14000461e:	49 83 f9 0a          	cmp    $0xa,%r9
   140004622:	73 11                	jae    0x140004635
   140004624:	48 c7 c0 ec ff ff ff 	mov    $0xffffffffffffffec,%rax
   14000462b:	48 81 c4 68 01 00 00 	add    $0x168,%rsp
   140004632:	5b                   	pop    %rbx
   140004633:	5d                   	pop    %rbp
   140004634:	c3                   	retq   
   140004635:	48 89 b4 24 90 01 00 	mov    %rsi,0x190(%rsp)
   14000463c:	00 
   14000463d:	48 8d 04 11          	lea    (%rcx,%rdx,1),%rax
   140004641:	41 0f b7 10          	movzwl (%r8),%edx
   140004645:	4d 8d 58 06          	lea    0x6(%r8),%r11
   140004649:	41 0f b7 70 02       	movzwl 0x2(%r8),%esi
   14000464e:	48 8b 8d a0 00 00 00 	mov    0xa0(%rbp),%rcx
   140004655:	48 89 bc 24 60 01 00 	mov    %rdi,0x160(%rsp)
   14000465c:	00 
   14000465d:	49 8b f9             	mov    %r9,%rdi
   140004660:	48 89 45 d0          	mov    %rax,-0x30(%rbp)
   140004664:	4c 89 a4 24 58 01 00 	mov    %r12,0x158(%rsp)
   14000466b:	00 
   14000466c:	4c 89 ac 24 50 01 00 	mov    %r13,0x150(%rsp)
   140004673:	00 
   140004674:	4c 8d 69 04          	lea    0x4(%rcx),%r13
   140004678:	4c 89 b4 24 48 01 00 	mov    %r14,0x148(%rsp)
   14000467f:	00 
   140004680:	45 0f b7 70 04       	movzwl 0x4(%r8),%r14d
   140004685:	49 2b fe             	sub    %r14,%rdi
   140004688:	4c 89 bc 24 40 01 00 	mov    %r15,0x140(%rsp)
   14000468f:	00 
   140004690:	48 2b fe             	sub    %rsi,%rdi
   140004693:	4d 8d 3c 13          	lea    (%r11,%rdx,1),%r15
   140004697:	48 2b fa             	sub    %rdx,%rdi
   14000469a:	4d 8d 24 37          	lea    (%r15,%rsi,1),%r12
   14000469e:	4b 8d 04 34          	lea    (%r12,%r14,1),%rax
   1400046a2:	48 83 ef 06          	sub    $0x6,%rdi
   1400046a6:	48 89 85 98 00 00 00 	mov    %rax,0x98(%rbp)
   1400046ad:	48 8d 43 03          	lea    0x3(%rbx),%rax
   1400046b1:	48 c1 e8 02          	shr    $0x2,%rax
   1400046b5:	4e 8d 04 10          	lea    (%rax,%r10,1),%r8
   1400046b9:	4d 8d 14 00          	lea    (%r8,%rax,1),%r10
   1400046bd:	4c 89 44 24 28       	mov    %r8,0x28(%rsp)
   1400046c2:	49 03 c2             	add    %r10,%rax
   1400046c5:	4c 89 55 28          	mov    %r10,0x28(%rbp)
   1400046c9:	48 89 45 c8          	mov    %rax,-0x38(%rbp)
   1400046cd:	48 89 44 24 60       	mov    %rax,0x60(%rsp)
   1400046d2:	8b 01                	mov    (%rcx),%eax
   1400046d4:	c1 e8 10             	shr    $0x10,%eax
   1400046d7:	0f b6 d8             	movzbl %al,%ebx
   1400046da:	89 5d c0             	mov    %ebx,-0x40(%rbp)
   1400046dd:	4c 89 44 24 58       	mov    %r8,0x58(%rsp)
   1400046e2:	4c 89 54 24 38       	mov    %r10,0x38(%rsp)
   1400046e7:	49 3b f9             	cmp    %r9,%rdi
   1400046ea:	0f 87 7f 06 00 00    	ja     0x140004d6f
   1400046f0:	48 83 fa 01          	cmp    $0x1,%rdx
   1400046f4:	73 0c                	jae    0x140004702
   1400046f6:	48 c7 c0 b8 ff ff ff 	mov    $0xffffffffffffffb8,%rax
   1400046fd:	e9 15 13 00 00       	jmpq   0x140005a17
   140004702:	4c 8b c2             	mov    %rdx,%r8
   140004705:	48 8d 4d 00          	lea    0x0(%rbp),%rcx
   140004709:	49 8b d3             	mov    %r11,%rdx
   14000470c:	e8 af c9 ff ff       	callq  0x1400010c0
   140004711:	48 83 f8 88          	cmp    $0xffffffffffffff88,%rax
   140004715:	0f 87 fc 12 00 00    	ja     0x140005a17
   14000471b:	48 83 fe 01          	cmp    $0x1,%rsi
   14000471f:	72 d5                	jb     0x1400046f6
   140004721:	4c 8b c6             	mov    %rsi,%r8
   140004724:	48 8d 4d d8          	lea    -0x28(%rbp),%rcx
   140004728:	49 8b d7             	mov    %r15,%rdx
   14000472b:	e8 90 c9 ff ff       	callq  0x1400010c0
   140004730:	48 83 f8 88          	cmp    $0xffffffffffffff88,%rax
   140004734:	0f 87 dd 12 00 00    	ja     0x140005a17
   14000473a:	49 83 fe 01          	cmp    $0x1,%r14
   14000473e:	72 b6                	jb     0x1400046f6
   140004740:	4d 8b c6             	mov    %r14,%r8
   140004743:	48 8d 4d 90          	lea    -0x70(%rbp),%rcx
   140004747:	49 8b d4             	mov    %r12,%rdx
   14000474a:	e8 71 c9 ff ff       	callq  0x1400010c0
   14000474f:	48 83 f8 88          	cmp    $0xffffffffffffff88,%rax
   140004753:	0f 87 be 12 00 00    	ja     0x140005a17
   140004759:	48 83 ff 01          	cmp    $0x1,%rdi
   14000475d:	72 97                	jb     0x1400046f6
   14000475f:	48 8b 95 98 00 00 00 	mov    0x98(%rbp),%rdx
   140004766:	48 8d 4c 24 68       	lea    0x68(%rsp),%rcx
   14000476b:	4c 8b c7             	mov    %rdi,%r8
   14000476e:	e8 4d c9 ff ff       	callq  0x1400010c0
   140004773:	48 83 f8 88          	cmp    $0xffffffffffffff88,%rax
   140004777:	0f 87 9a 12 00 00    	ja     0x140005a17
   14000477d:	48 8b 4d d0          	mov    -0x30(%rbp),%rcx
   140004781:	48 8b 55 c8          	mov    -0x38(%rbp),%rdx
   140004785:	48 83 c1 f9          	add    $0xfffffffffffffff9,%rcx
   140004789:	44 8b 55 08          	mov    0x8(%rbp),%r10d
   14000478d:	44 8b 5d e0          	mov    -0x20(%rbp),%r11d
   140004791:	8b 7d 98             	mov    -0x68(%rbp),%edi
   140004794:	44 8b 4c 24 70       	mov    0x70(%rsp),%r9d
   140004799:	4c 8b 85 80 00 00 00 	mov    0x80(%rbp),%r8
   1400047a0:	48 3b d1             	cmp    %rcx,%rdx
   1400047a3:	0f 83 6a 05 00 00    	jae    0x140004d13
   1400047a9:	48 8b 55 00          	mov    0x0(%rbp),%rdx
   1400047ad:	8b c3                	mov    %ebx,%eax
   1400047af:	4c 8b 7d e8          	mov    -0x18(%rbp),%r15
   1400047b3:	f7 d8                	neg    %eax
   1400047b5:	4c 8b 75 a0          	mov    -0x60(%rbp),%r14
   1400047b9:	83 e0 3f             	and    $0x3f,%eax
   1400047bc:	48 8b 74 24 78       	mov    0x78(%rsp),%rsi
   1400047c1:	48 8b 5c 24 60       	mov    0x60(%rsp),%rbx
   1400047c6:	89 44 24 20          	mov    %eax,0x20(%rsp)
   1400047ca:	48 8b 45 d8          	mov    -0x28(%rbp),%rax
   1400047ce:	48 89 44 24 30       	mov    %rax,0x30(%rsp)
   1400047d3:	48 8b 45 90          	mov    -0x70(%rbp),%rax
   1400047d7:	48 89 44 24 40       	mov    %rax,0x40(%rsp)
   1400047dc:	48 8b 44 24 68       	mov    0x68(%rsp),%rax
   1400047e1:	48 89 44 24 48       	mov    %rax,0x48(%rsp)
   1400047e6:	48 89 54 24 50       	mov    %rdx,0x50(%rsp)
   1400047eb:	0f 1f 44 00 00       	nopl   0x0(%rax,%rax,1)
   1400047f0:	44 8b 64 24 20       	mov    0x20(%rsp),%r12d
   1400047f5:	41 8b ca             	mov    %r10d,%ecx
   1400047f8:	83 e1 3f             	and    $0x3f,%ecx
   1400047fb:	48 8b c2             	mov    %rdx,%rax
   1400047fe:	48 d3 e0             	shl    %cl,%rax
   140004801:	41 8b cc             	mov    %r12d,%ecx
   140004804:	48 d3 e8             	shr    %cl,%rax
   140004807:	48 8b 54 24 58       	mov    0x58(%rsp),%rdx
   14000480c:	48 8d 0c 85 00 00 00 	lea    0x0(,%rax,4),%rcx
   140004813:	00 
   140004814:	42 0f b7 04 29       	movzwl (%rcx,%r13,1),%eax
   140004819:	66 41 89 00          	mov    %ax,(%r8)
   14000481d:	42 0f b6 44 29 02    	movzbl 0x2(%rcx,%r13,1),%eax
   140004823:	44 03 d0             	add    %eax,%r10d
   140004826:	42 0f b6 44 29 03    	movzbl 0x3(%rcx,%r13,1),%eax
   14000482c:	4c 03 c0             	add    %rax,%r8
   14000482f:	41 8b cb             	mov    %r11d,%ecx
   140004832:	48 8b 44 24 30       	mov    0x30(%rsp),%rax
   140004837:	83 e1 3f             	and    $0x3f,%ecx
   14000483a:	48 d3 e0             	shl    %cl,%rax
   14000483d:	41 8b cc             	mov    %r12d,%ecx
   140004840:	48 d3 e8             	shr    %cl,%rax
   140004843:	48 8d 0c 85 00 00 00 	lea    0x0(,%rax,4),%rcx
   14000484a:	00 
   14000484b:	42 0f b7 04 29       	movzwl (%rcx,%r13,1),%eax
   140004850:	66 89 02             	mov    %ax,(%rdx)
   140004853:	42 0f b6 44 29 02    	movzbl 0x2(%rcx,%r13,1),%eax
   140004859:	44 03 d8             	add    %eax,%r11d
   14000485c:	42 0f b6 44 29 03    	movzbl 0x3(%rcx,%r13,1),%eax
   140004862:	48 03 d0             	add    %rax,%rdx
   140004865:	8b cf                	mov    %edi,%ecx
   140004867:	48 8b 44 24 40       	mov    0x40(%rsp),%rax
   14000486c:	83 e1 3f             	and    $0x3f,%ecx
   14000486f:	48 d3 e0             	shl    %cl,%rax
   140004872:	41 8b cc             	mov    %r12d,%ecx
   140004875:	48 d3 e8             	shr    %cl,%rax
   140004878:	4c 8b 64 24 38       	mov    0x38(%rsp),%r12
   14000487d:	48 8d 0c 85 00 00 00 	lea    0x0(,%rax,4),%rcx
   140004884:	00 
   140004885:	42 0f b7 04 29       	movzwl (%rcx,%r13,1),%eax
   14000488a:	66 41 89 04 24       	mov    %ax,(%r12)
   14000488f:	42 0f b6 44 29 02    	movzbl 0x2(%rcx,%r13,1),%eax
   140004895:	44 8b 64 24 20       	mov    0x20(%rsp),%r12d
   14000489a:	03 f8                	add    %eax,%edi
   14000489c:	42 0f b6 44 29 03    	movzbl 0x3(%rcx,%r13,1),%eax
   1400048a2:	41 8b c9             	mov    %r9d,%ecx
   1400048a5:	48 01 44 24 38       	add    %rax,0x38(%rsp)
   1400048aa:	83 e1 3f             	and    $0x3f,%ecx
   1400048ad:	48 8b 44 24 48       	mov    0x48(%rsp),%rax
   1400048b2:	48 d3 e0             	shl    %cl,%rax
   1400048b5:	41 8b cc             	mov    %r12d,%ecx
   1400048b8:	48 d3 e8             	shr    %cl,%rax
   1400048bb:	48 8d 0c 85 00 00 00 	lea    0x0(,%rax,4),%rcx
   1400048c2:	00 
   1400048c3:	42 0f b7 04 29       	movzwl (%rcx,%r13,1),%eax
   1400048c8:	66 89 03             	mov    %ax,(%rbx)
   1400048cb:	42 0f b6 44 29 02    	movzbl 0x2(%rcx,%r13,1),%eax
   1400048d1:	44 03 c8             	add    %eax,%r9d
   1400048d4:	42 0f b6 44 29 03    	movzbl 0x3(%rcx,%r13,1),%eax
   1400048da:	48 03 d8             	add    %rax,%rbx
   1400048dd:	41 8b ca             	mov    %r10d,%ecx
   1400048e0:	48 8b 44 24 50       	mov    0x50(%rsp),%rax
   1400048e5:	83 e1 3f             	and    $0x3f,%ecx
   1400048e8:	48 d3 e0             	shl    %cl,%rax
   1400048eb:	41 8b cc             	mov    %r12d,%ecx
   1400048ee:	48 d3 e8             	shr    %cl,%rax
   1400048f1:	48 8d 0c 85 00 00 00 	lea    0x0(,%rax,4),%rcx
   1400048f8:	00 
   1400048f9:	42 0f b7 04 29       	movzwl (%rcx,%r13,1),%eax
   1400048fe:	66 41 89 00          	mov    %ax,(%r8)
   140004902:	42 0f b6 44 29 02    	movzbl 0x2(%rcx,%r13,1),%eax
   140004908:	44 03 d0             	add    %eax,%r10d
   14000490b:	42 0f b6 44 29 03    	movzbl 0x3(%rcx,%r13,1),%eax
   140004911:	4c 03 c0             	add    %rax,%r8
   140004914:	41 8b cb             	mov    %r11d,%ecx
   140004917:	48 8b 44 24 30       	mov    0x30(%rsp),%rax
   14000491c:	83 e1 3f             	and    $0x3f,%ecx
   14000491f:	48 d3 e0             	shl    %cl,%rax
   140004922:	41 8b cc             	mov    %r12d,%ecx
   140004925:	48 d3 e8             	shr    %cl,%rax
   140004928:	48 8d 0c 85 00 00 00 	lea    0x0(,%rax,4),%rcx
   14000492f:	00 
   140004930:	42 0f b7 04 29       	movzwl (%rcx,%r13,1),%eax
   140004935:	66 89 02             	mov    %ax,(%rdx)
   140004938:	42 0f b6 44 29 02    	movzbl 0x2(%rcx,%r13,1),%eax
   14000493e:	44 03 d8             	add    %eax,%r11d
   140004941:	42 0f b6 44 29 03    	movzbl 0x3(%rcx,%r13,1),%eax
   140004947:	48 03 d0             	add    %rax,%rdx
   14000494a:	8b cf                	mov    %edi,%ecx
   14000494c:	48 8b 44 24 40       	mov    0x40(%rsp),%rax
   140004951:	83 e1 3f             	and    $0x3f,%ecx
   140004954:	48 d3 e0             	shl    %cl,%rax
   140004957:	41 8b cc             	mov    %r12d,%ecx
   14000495a:	48 d3 e8             	shr    %cl,%rax
   14000495d:	4c 8b 64 24 38       	mov    0x38(%rsp),%r12
   140004962:	48 8d 0c 85 00 00 00 	lea    0x0(,%rax,4),%rcx
   140004969:	00 
   14000496a:	42 0f b7 04 29       	movzwl (%rcx,%r13,1),%eax
   14000496f:	66 41 89 04 24       	mov    %ax,(%r12)
   140004974:	42 0f b6 44 29 02    	movzbl 0x2(%rcx,%r13,1),%eax
   14000497a:	03 f8                	add    %eax,%edi
   14000497c:	42 0f b6 44 29 03    	movzbl 0x3(%rcx,%r13,1),%eax
   140004982:	48 01 44 24 38       	add    %rax,0x38(%rsp)
   140004987:	41 8b c9             	mov    %r9d,%ecx
   14000498a:	48 8b 44 24 48       	mov    0x48(%rsp),%rax
   14000498f:	83 e1 3f             	and    $0x3f,%ecx
   140004992:	48 d3 e0             	shl    %cl,%rax
   140004995:	8b 4c 24 20          	mov    0x20(%rsp),%ecx
   140004999:	48 d3 e8             	shr    %cl,%rax
   14000499c:	48 8d 0c 85 00 00 00 	lea    0x0(,%rax,4),%rcx
   1400049a3:	00 
   1400049a4:	42 0f b7 04 29       	movzwl (%rcx,%r13,1),%eax
   1400049a9:	66 89 03             	mov    %ax,(%rbx)
   1400049ac:	42 0f b6 44 29 02    	movzbl 0x2(%rcx,%r13,1),%eax
   1400049b2:	44 03 c8             	add    %eax,%r9d
   1400049b5:	42 0f b6 44 29 03    	movzbl 0x3(%rcx,%r13,1),%eax
   1400049bb:	48 03 d8             	add    %rax,%rbx
   1400049be:	41 8b ca             	mov    %r10d,%ecx
   1400049c1:	48 8b 44 24 50       	mov    0x50(%rsp),%rax
   1400049c6:	83 e1 3f             	and    $0x3f,%ecx
   1400049c9:	48 d3 e0             	shl    %cl,%rax
   1400049cc:	8b 4c 24 20          	mov    0x20(%rsp),%ecx
   1400049d0:	48 d3 e8             	shr    %cl,%rax
   1400049d3:	48 8d 0c 85 00 00 00 	lea    0x0(,%rax,4),%rcx
   1400049da:	00 
   1400049db:	42 0f b7 04 29       	movzwl (%rcx,%r13,1),%eax
   1400049e0:	66 41 89 00          	mov    %ax,(%r8)
   1400049e4:	42 0f b6 44 29 02    	movzbl 0x2(%rcx,%r13,1),%eax
   1400049ea:	44 03 d0             	add    %eax,%r10d
   1400049ed:	42 0f b6 44 29 03    	movzbl 0x3(%rcx,%r13,1),%eax
   1400049f3:	4c 03 c0             	add    %rax,%r8
   1400049f6:	41 8b cb             	mov    %r11d,%ecx
   1400049f9:	48 8b 44 24 30       	mov    0x30(%rsp),%rax
   1400049fe:	83 e1 3f             	and    $0x3f,%ecx
   140004a01:	48 d3 e0             	shl    %cl,%rax
   140004a04:	8b 4c 24 20          	mov    0x20(%rsp),%ecx
   140004a08:	48 d3 e8             	shr    %cl,%rax
   140004a0b:	48 8d 0c 85 00 00 00 	lea    0x0(,%rax,4),%rcx
   140004a12:	00 
   140004a13:	42 0f b7 04 29       	movzwl (%rcx,%r13,1),%eax
   140004a18:	66 89 02             	mov    %ax,(%rdx)
   140004a1b:	42 0f b6 44 29 02    	movzbl 0x2(%rcx,%r13,1),%eax
   140004a21:	44 03 d8             	add    %eax,%r11d
   140004a24:	42 0f b6 44 29 03    	movzbl 0x3(%rcx,%r13,1),%eax
   140004a2a:	48 03 d0             	add    %rax,%rdx
   140004a2d:	44 89 5d 34          	mov    %r11d,0x34(%rbp)
   140004a31:	48 8b 44 24 40       	mov    0x40(%rsp),%rax
   140004a36:	8b cf                	mov    %edi,%ecx
   140004a38:	83 e1 3f             	and    $0x3f,%ecx
   140004a3b:	48 89 54 24 58       	mov    %rdx,0x58(%rsp)
   140004a40:	48 8b 54 24 38       	mov    0x38(%rsp),%rdx
   140004a45:	48 d3 e0             	shl    %cl,%rax
   140004a48:	8b 4c 24 20          	mov    0x20(%rsp),%ecx
   140004a4c:	48 d3 e8             	shr    %cl,%rax
   140004a4f:	48 8d 0c 85 00 00 00 	lea    0x0(,%rax,4),%rcx
   140004a56:	00 
   140004a57:	42 0f b7 04 29       	movzwl (%rcx,%r13,1),%eax
   140004a5c:	66 89 02             	mov    %ax,(%rdx)
   140004a5f:	42 0f b6 44 29 02    	movzbl 0x2(%rcx,%r13,1),%eax
   140004a65:	03 f8                	add    %eax,%edi
   140004a67:	42 0f b6 44 29 03    	movzbl 0x3(%rcx,%r13,1),%eax
   140004a6d:	48 03 d0             	add    %rax,%rdx
   140004a70:	89 7c 24 24          	mov    %edi,0x24(%rsp)
   140004a74:	48 89 54 24 38       	mov    %rdx,0x38(%rsp)
   140004a79:	41 8b c9             	mov    %r9d,%ecx
   140004a7c:	48 8b 54 24 48       	mov    0x48(%rsp),%rdx
   140004a81:	83 e1 3f             	and    $0x3f,%ecx
   140004a84:	48 d3 e2             	shl    %cl,%rdx
   140004a87:	8b 4c 24 20          	mov    0x20(%rsp),%ecx
   140004a8b:	48 d3 ea             	shr    %cl,%rdx
   140004a8e:	41 0f b7 44 95 00    	movzwl 0x0(%r13,%rdx,4),%eax
   140004a94:	66 89 03             	mov    %ax,(%rbx)
   140004a97:	41 0f b6 44 95 02    	movzbl 0x2(%r13,%rdx,4),%eax
   140004a9d:	44 8b 64 24 20       	mov    0x20(%rsp),%r12d
   140004aa2:	44 03 c8             	add    %eax,%r9d
   140004aa5:	41 0f b6 44 95 03    	movzbl 0x3(%r13,%rdx,4),%eax
   140004aab:	41 8b ca             	mov    %r10d,%ecx
   140004aae:	48 8b 54 24 58       	mov    0x58(%rsp),%rdx
   140004ab3:	48 03 d8             	add    %rax,%rbx
   140004ab6:	48 8b 44 24 50       	mov    0x50(%rsp),%rax
   140004abb:	83 e1 3f             	and    $0x3f,%ecx
   140004abe:	48 d3 e0             	shl    %cl,%rax
   140004ac1:	41 8b cc             	mov    %r12d,%ecx
   140004ac4:	48 d3 e8             	shr    %cl,%rax
   140004ac7:	48 8d 0c 85 00 00 00 	lea    0x0(,%rax,4),%rcx
   140004ace:	00 
   140004acf:	42 0f b7 04 29       	movzwl (%rcx,%r13,1),%eax
   140004ad4:	66 41 89 00          	mov    %ax,(%r8)
   140004ad8:	42 0f b6 44 29 02    	movzbl 0x2(%rcx,%r13,1),%eax
   140004ade:	44 03 d0             	add    %eax,%r10d
   140004ae1:	42 0f b6 44 29 03    	movzbl 0x3(%rcx,%r13,1),%eax
   140004ae7:	4c 03 c0             	add    %rax,%r8
   140004aea:	44 89 95 98 00 00 00 	mov    %r10d,0x98(%rbp)
   140004af1:	48 8b 44 24 30       	mov    0x30(%rsp),%rax
   140004af6:	41 8b cb             	mov    %r11d,%ecx
   140004af9:	83 e1 3f             	and    $0x3f,%ecx
   140004afc:	48 d3 e0             	shl    %cl,%rax
   140004aff:	41 8b cc             	mov    %r12d,%ecx
   140004b02:	48 d3 e8             	shr    %cl,%rax
   140004b05:	48 8d 0c 85 00 00 00 	lea    0x0(,%rax,4),%rcx
   140004b0c:	00 
   140004b0d:	42 0f b7 04 29       	movzwl (%rcx,%r13,1),%eax
   140004b12:	66 89 02             	mov    %ax,(%rdx)
   140004b15:	42 0f b6 44 29 02    	movzbl 0x2(%rcx,%r13,1),%eax
   140004b1b:	44 03 d8             	add    %eax,%r11d
   140004b1e:	89 45 30             	mov    %eax,0x30(%rbp)
   140004b21:	42 0f b6 44 29 03    	movzbl 0x3(%rcx,%r13,1),%eax
   140004b27:	8b cf                	mov    %edi,%ecx
   140004b29:	48 03 d0             	add    %rax,%rdx
   140004b2c:	83 e1 3f             	and    $0x3f,%ecx
   140004b2f:	48 8b 44 24 40       	mov    0x40(%rsp),%rax
   140004b34:	48 d3 e0             	shl    %cl,%rax
   140004b37:	41 8b cc             	mov    %r12d,%ecx
   140004b3a:	48 d3 e8             	shr    %cl,%rax
   140004b3d:	48 89 54 24 58       	mov    %rdx,0x58(%rsp)
   140004b42:	48 8b 54 24 38       	mov    0x38(%rsp),%rdx
   140004b47:	48 8d 0c 85 00 00 00 	lea    0x0(,%rax,4),%rcx
   140004b4e:	00 
   140004b4f:	42 0f b7 04 29       	movzwl (%rcx,%r13,1),%eax
   140004b54:	66 89 02             	mov    %ax,(%rdx)
   140004b57:	42 0f b6 44 29 02    	movzbl 0x2(%rcx,%r13,1),%eax
   140004b5d:	03 f8                	add    %eax,%edi
   140004b5f:	89 85 a8 00 00 00    	mov    %eax,0xa8(%rbp)
   140004b65:	42 0f b6 44 29 03    	movzbl 0x3(%rcx,%r13,1),%eax
   140004b6b:	41 8b c9             	mov    %r9d,%ecx
   140004b6e:	48 03 d0             	add    %rax,%rdx
   140004b71:	83 e1 3f             	and    $0x3f,%ecx
   140004b74:	48 89 54 24 38       	mov    %rdx,0x38(%rsp)
   140004b79:	48 8b 54 24 48       	mov    0x48(%rsp),%rdx
   140004b7e:	48 d3 e2             	shl    %cl,%rdx
   140004b81:	41 8b cc             	mov    %r12d,%ecx
   140004b84:	4c 8b 65 10          	mov    0x10(%rbp),%r12
   140004b88:	48 d3 ea             	shr    %cl,%rdx
   140004b8b:	41 0f b7 44 95 00    	movzwl 0x0(%r13,%rdx,4),%eax
   140004b91:	66 89 03             	mov    %ax,(%rbx)
   140004b94:	41 0f b6 44 95 02    	movzbl 0x2(%r13,%rdx,4),%eax
   140004b9a:	44 03 c8             	add    %eax,%r9d
   140004b9d:	41 0f b6 44 95 03    	movzbl 0x3(%r13,%rdx,4),%eax
   140004ba3:	48 03 d8             	add    %rax,%rbx
   140004ba6:	4c 3b 65 20          	cmp    0x20(%rbp),%r12
   140004baa:	73 09                	jae    0x140004bb5
   140004bac:	c7 45 b8 03 00 00 00 	movl   $0x3,-0x48(%rbp)
   140004bb3:	eb 29                	jmp    0x140004bde
   140004bb5:	41 8b c2             	mov    %r10d,%eax
   140004bb8:	48 c1 e8 03          	shr    $0x3,%rax
   140004bbc:	4c 2b e0             	sub    %rax,%r12
   140004bbf:	c7 45 b8 00 00 00 00 	movl   $0x0,-0x48(%rbp)
   140004bc6:	41 83 e2 07          	and    $0x7,%r10d
   140004bca:	4c 89 65 10          	mov    %r12,0x10(%rbp)
   140004bce:	44 89 95 98 00 00 00 	mov    %r10d,0x98(%rbp)
   140004bd5:	49 8b 04 24          	mov    (%r12),%rax
   140004bd9:	48 89 44 24 50       	mov    %rax,0x50(%rsp)
   140004bde:	8b 85 a8 00 00 00    	mov    0xa8(%rbp),%eax
   140004be4:	0f b6 c8             	movzbl %al,%ecx
   140004be7:	0f b6 c8             	movzbl %al,%ecx
   140004bea:	0f b6 d0             	movzbl %al,%edx
   140004bed:	03 4c 24 24          	add    0x24(%rsp),%ecx
   140004bf1:	89 4c 24 60          	mov    %ecx,0x60(%rsp)
   140004bf5:	0f b6 c8             	movzbl %al,%ecx
   140004bf8:	03 4c 24 24          	add    0x24(%rsp),%ecx
   140004bfc:	88 85 a8 00 00 00    	mov    %al,0xa8(%rbp)
   140004c02:	89 8d a8 00 00 00    	mov    %ecx,0xa8(%rbp)
   140004c08:	0f b6 c8             	movzbl %al,%ecx
   140004c0b:	03 4c 24 24          	add    0x24(%rsp),%ecx
   140004c0f:	0f b6 d0             	movzbl %al,%edx
   140004c12:	03 54 24 24          	add    0x24(%rsp),%edx
   140004c16:	4c 3b 7d f8          	cmp    -0x8(%rbp),%r15
   140004c1a:	73 0a                	jae    0x140004c26
   140004c1c:	c7 44 24 24 03 00 00 	movl   $0x3,0x24(%rsp)
   140004c23:	00 
   140004c24:	eb 30                	jmp    0x140004c56
   140004c26:	44 8b 5d 34          	mov    0x34(%rbp),%r11d
   140004c2a:	44 03 5d 30          	add    0x30(%rbp),%r11d
   140004c2e:	8b 8d a8 00 00 00    	mov    0xa8(%rbp),%ecx
   140004c34:	8b 54 24 60          	mov    0x60(%rsp),%edx
   140004c38:	41 8b c3             	mov    %r11d,%eax
   140004c3b:	48 c1 e8 03          	shr    $0x3,%rax
   140004c3f:	4c 2b f8             	sub    %rax,%r15
   140004c42:	c7 44 24 24 00 00 00 	movl   $0x0,0x24(%rsp)
   140004c49:	00 
   140004c4a:	41 83 e3 07          	and    $0x7,%r11d
   140004c4e:	49 8b 07             	mov    (%r15),%rax
   140004c51:	48 89 44 24 30       	mov    %rax,0x30(%rsp)
   140004c56:	4c 3b 75 b0          	cmp    -0x50(%rbp),%r14
   140004c5a:	73 0c                	jae    0x140004c68
   140004c5c:	c7 85 a8 00 00 00 03 	movl   $0x3,0xa8(%rbp)
   140004c63:	00 00 00 
   140004c66:	eb 20                	jmp    0x140004c88
   140004c68:	8b c1                	mov    %ecx,%eax
   140004c6a:	8b fa                	mov    %edx,%edi
   140004c6c:	48 c1 e8 03          	shr    $0x3,%rax
   140004c70:	4c 2b f0             	sub    %rax,%r14
   140004c73:	c7 85 a8 00 00 00 00 	movl   $0x0,0xa8(%rbp)
   140004c7a:	00 00 00 
   140004c7d:	83 e7 07             	and    $0x7,%edi
   140004c80:	49 8b 06             	mov    (%r14),%rax
   140004c83:	48 89 44 24 40       	mov    %rax,0x40(%rsp)
   140004c88:	48 3b 75 88          	cmp    -0x78(%rbp),%rsi
   140004c8c:	73 07                	jae    0x140004c95
   140004c8e:	ba 03 00 00 00       	mov    $0x3,%edx
   140004c93:	eb 18                	jmp    0x140004cad
   140004c95:	41 8b c1             	mov    %r9d,%eax
   140004c98:	41 83 e1 07          	and    $0x7,%r9d
   140004c9c:	48 c1 e8 03          	shr    $0x3,%rax
   140004ca0:	48 2b f0             	sub    %rax,%rsi
   140004ca3:	33 d2                	xor    %edx,%edx
   140004ca5:	48 8b 06             	mov    (%rsi),%rax
   140004ca8:	48 89 44 24 48       	mov    %rax,0x48(%rsp)
   140004cad:	48 8b 45 d0          	mov    -0x30(%rbp),%rax
   140004cb1:	33 c9                	xor    %ecx,%ecx
   140004cb3:	44 8b 95 98 00 00 00 	mov    0x98(%rbp),%r10d
   140004cba:	48 83 c0 f9          	add    $0xfffffffffffffff9,%rax
   140004cbe:	48 3b d8             	cmp    %rax,%rbx
   140004cc1:	0f 92 c1             	setb   %cl
   140004cc4:	33 c0                	xor    %eax,%eax
   140004cc6:	85 d2                	test   %edx,%edx
   140004cc8:	0f 94 c0             	sete   %al
   140004ccb:	33 d2                	xor    %edx,%edx
   140004ccd:	23 c8                	and    %eax,%ecx
   140004ccf:	39 95 a8 00 00 00    	cmp    %edx,0xa8(%rbp)
   140004cd5:	0f 44 d1             	cmove  %ecx,%edx
   140004cd8:	33 c0                	xor    %eax,%eax
   140004cda:	39 44 24 24          	cmp    %eax,0x24(%rsp)
   140004cde:	0f 94 c0             	sete   %al
   140004ce1:	23 d0                	and    %eax,%edx
   140004ce3:	33 c0                	xor    %eax,%eax
   140004ce5:	39 45 b8             	cmp    %eax,-0x48(%rbp)
   140004ce8:	0f 44 c2             	cmove  %edx,%eax
   140004ceb:	48 8b 54 24 50       	mov    0x50(%rsp),%rdx
   140004cf0:	85 c0                	test   %eax,%eax
   140004cf2:	0f 85 f8 fa ff ff    	jne    0x1400047f0
   140004cf8:	48 8b 55 c8          	mov    -0x38(%rbp),%rdx
   140004cfc:	48 89 5c 24 60       	mov    %rbx,0x60(%rsp)
   140004d01:	8b 5d c0             	mov    -0x40(%rbp),%ebx
   140004d04:	48 89 74 24 78       	mov    %rsi,0x78(%rsp)
   140004d09:	4c 89 75 a0          	mov    %r14,-0x60(%rbp)
   140004d0d:	4c 89 7d e8          	mov    %r15,-0x18(%rbp)
   140004d11:	eb 30                	jmp    0x140004d43
   140004d13:	48 8b 45 00          	mov    0x0(%rbp),%rax
   140004d17:	4c 8b 65 10          	mov    0x10(%rbp),%r12
   140004d1b:	48 89 44 24 50       	mov    %rax,0x50(%rsp)
   140004d20:	48 8b 45 d8          	mov    -0x28(%rbp),%rax
   140004d24:	48 89 44 24 30       	mov    %rax,0x30(%rsp)
   140004d29:	48 8b 45 90          	mov    -0x70(%rbp),%rax
   140004d2d:	48 89 44 24 40       	mov    %rax,0x40(%rsp)
   140004d32:	48 8b 44 24 68       	mov    0x68(%rsp),%rax
   140004d37:	48 89 44 24 48       	mov    %rax,0x48(%rsp)
   140004d3c:	44 89 95 98 00 00 00 	mov    %r10d,0x98(%rbp)
   140004d43:	48 8b 44 24 28       	mov    0x28(%rsp),%rax
   140004d48:	44 89 4c 24 24       	mov    %r9d,0x24(%rsp)
   140004d4d:	89 bd a8 00 00 00    	mov    %edi,0xa8(%rbp)
   140004d53:	44 89 5c 24 20       	mov    %r11d,0x20(%rsp)
   140004d58:	4c 3b c0             	cmp    %rax,%r8
   140004d5b:	77 12                	ja     0x140004d6f
   140004d5d:	48 8b 4d 28          	mov    0x28(%rbp),%rcx
   140004d61:	48 39 4c 24 58       	cmp    %rcx,0x58(%rsp)
   140004d66:	77 07                	ja     0x140004d6f
   140004d68:	48 39 54 24 38       	cmp    %rdx,0x38(%rsp)
   140004d6d:	76 0c                	jbe    0x140004d7b
   140004d6f:	48 c7 c0 ec ff ff ff 	mov    $0xffffffffffffffec,%rax
   140004d76:	e9 9c 0c 00 00       	jmpq   0x140005a17
   140004d7b:	48 8b 74 24 50       	mov    0x50(%rsp),%rsi
   140004d80:	f7 db                	neg    %ebx
   140004d82:	83 e3 3f             	and    $0x3f,%ebx
   140004d85:	41 bf 01 00 00 00    	mov    $0x1,%r15d
   140004d8b:	48 83 c0 f9          	add    $0xfffffffffffffff9,%rax
   140004d8f:	48 8b f8             	mov    %rax,%rdi
   140004d92:	41 83 fa 40          	cmp    $0x40,%r10d
   140004d96:	76 07                	jbe    0x140004d9f
   140004d98:	ba 03 00 00 00       	mov    $0x3,%edx
   140004d9d:	eb 6d                	jmp    0x140004e0c
   140004d9f:	4c 3b 65 20          	cmp    0x20(%rbp),%r12
   140004da3:	72 12                	jb     0x140004db7
   140004da5:	41 8b c2             	mov    %r10d,%eax
   140004da8:	41 83 e2 07          	and    $0x7,%r10d
   140004dac:	48 c1 e8 03          	shr    $0x3,%rax
   140004db0:	4c 2b e0             	sub    %rax,%r12
   140004db3:	33 d2                	xor    %edx,%edx
   140004db5:	eb 4d                	jmp    0x140004e04
   140004db7:	4c 3b 65 18          	cmp    0x18(%rbp),%r12
   140004dbb:	75 0b                	jne    0x140004dc8
   140004dbd:	41 83 fa 40          	cmp    $0x40,%r10d
   140004dc1:	1b c0                	sbb    %eax,%eax
   140004dc3:	8d 50 02             	lea    0x2(%rax),%edx
   140004dc6:	eb 44                	jmp    0x140004e0c
   140004dc8:	41 8b d2             	mov    %r10d,%edx
   140004dcb:	c7 85 98 00 00 00 00 	movl   $0x0,0x98(%rbp)
   140004dd2:	00 00 00 
   140004dd5:	c1 ea 03             	shr    $0x3,%edx
   140004dd8:	49 8b cc             	mov    %r12,%rcx
   140004ddb:	8b c2                	mov    %edx,%eax
   140004ddd:	48 2b c8             	sub    %rax,%rcx
   140004de0:	48 3b 4d 18          	cmp    0x18(%rbp),%rcx
   140004de4:	73 0d                	jae    0x140004df3
   140004de6:	8b 55 10             	mov    0x10(%rbp),%edx
   140004de9:	2b 55 18             	sub    0x18(%rbp),%edx
   140004dec:	44 89 bd 98 00 00 00 	mov    %r15d,0x98(%rbp)
   140004df3:	8b c2                	mov    %edx,%eax
   140004df5:	4c 2b e0             	sub    %rax,%r12
   140004df8:	6b c2 f8             	imul   $0xfffffff8,%edx,%eax
   140004dfb:	8b 95 98 00 00 00    	mov    0x98(%rbp),%edx
   140004e01:	44 03 d0             	add    %eax,%r10d
   140004e04:	49 8b 34 24          	mov    (%r12),%rsi
   140004e08:	4c 89 65 10          	mov    %r12,0x10(%rbp)
   140004e0c:	33 c9                	xor    %ecx,%ecx
   140004e0e:	4c 3b c7             	cmp    %rdi,%r8
   140004e11:	0f 92 c1             	setb   %cl
   140004e14:	33 c0                	xor    %eax,%eax
   140004e16:	85 d2                	test   %edx,%edx
   140004e18:	0f 94 c0             	sete   %al
   140004e1b:	85 c8                	test   %ecx,%eax
   140004e1d:	0f 84 ea 00 00 00    	je     0x140004f0d
   140004e23:	41 8b ca             	mov    %r10d,%ecx
   140004e26:	48 8b c6             	mov    %rsi,%rax
   140004e29:	83 e1 3f             	and    $0x3f,%ecx
   140004e2c:	48 8b d6             	mov    %rsi,%rdx
   140004e2f:	48 d3 e0             	shl    %cl,%rax
   140004e32:	8b cb                	mov    %ebx,%ecx
   140004e34:	48 d3 e8             	shr    %cl,%rax
   140004e37:	48 8d 0c 85 00 00 00 	lea    0x0(,%rax,4),%rcx
   140004e3e:	00 
   140004e3f:	42 0f b7 04 29       	movzwl (%rcx,%r13,1),%eax
   140004e44:	66 41 89 00          	mov    %ax,(%r8)
   140004e48:	42 0f b6 44 29 02    	movzbl 0x2(%rcx,%r13,1),%eax
   140004e4e:	44 03 d0             	add    %eax,%r10d
   140004e51:	42 0f b6 44 29 03    	movzbl 0x3(%rcx,%r13,1),%eax
   140004e57:	4c 03 c0             	add    %rax,%r8
   140004e5a:	41 8b ca             	mov    %r10d,%ecx
   140004e5d:	83 e1 3f             	and    $0x3f,%ecx
   140004e60:	48 8b c6             	mov    %rsi,%rax
   140004e63:	48 d3 e0             	shl    %cl,%rax
   140004e66:	8b cb                	mov    %ebx,%ecx
   140004e68:	48 d3 e8             	shr    %cl,%rax
   140004e6b:	48 8d 0c 85 00 00 00 	lea    0x0(,%rax,4),%rcx
   140004e72:	00 
   140004e73:	42 0f b7 04 29       	movzwl (%rcx,%r13,1),%eax
   140004e78:	66 41 89 00          	mov    %ax,(%r8)
   140004e7c:	42 0f b6 44 29 02    	movzbl 0x2(%rcx,%r13,1),%eax
   140004e82:	44 03 d0             	add    %eax,%r10d
   140004e85:	42 0f b6 44 29 03    	movzbl 0x3(%rcx,%r13,1),%eax
   140004e8b:	4c 03 c0             	add    %rax,%r8
   140004e8e:	41 8b ca             	mov    %r10d,%ecx
   140004e91:	83 e1 3f             	and    $0x3f,%ecx
   140004e94:	4c 89 85 80 00 00 00 	mov    %r8,0x80(%rbp)
   140004e9b:	48 d3 e2             	shl    %cl,%rdx
   140004e9e:	8b cb                	mov    %ebx,%ecx
   140004ea0:	48 d3 ea             	shr    %cl,%rdx
   140004ea3:	41 0f b7 44 95 00    	movzwl 0x0(%r13,%rdx,4),%eax
   140004ea9:	66 41 89 00          	mov    %ax,(%r8)
   140004ead:	45 0f b6 44 95 02    	movzbl 0x2(%r13,%rdx,4),%r8d
   140004eb3:	41 0f b6 44 95 03    	movzbl 0x3(%r13,%rdx,4),%eax
   140004eb9:	45 03 c2             	add    %r10d,%r8d
   140004ebc:	4c 8b 95 80 00 00 00 	mov    0x80(%rbp),%r10
   140004ec3:	41 8b c8             	mov    %r8d,%ecx
   140004ec6:	4c 03 d0             	add    %rax,%r10
   140004ec9:	83 e1 3f             	and    $0x3f,%ecx
   140004ecc:	4c 89 95 80 00 00 00 	mov    %r10,0x80(%rbp)
   140004ed3:	48 8b c6             	mov    %rsi,%rax
   140004ed6:	48 d3 e0             	shl    %cl,%rax
   140004ed9:	8b cb                	mov    %ebx,%ecx
   140004edb:	48 d3 e8             	shr    %cl,%rax
   140004ede:	48 8d 0c 85 00 00 00 	lea    0x0(,%rax,4),%rcx
   140004ee5:	00 
   140004ee6:	42 0f b7 04 29       	movzwl (%rcx,%r13,1),%eax
   140004eeb:	66 41 89 02          	mov    %ax,(%r10)
   140004eef:	46 0f b6 54 29 02    	movzbl 0x2(%rcx,%r13,1),%r10d
   140004ef5:	42 0f b6 44 29 03    	movzbl 0x3(%rcx,%r13,1),%eax
   140004efb:	45 03 d0             	add    %r8d,%r10d
   140004efe:	4c 8b 85 80 00 00 00 	mov    0x80(%rbp),%r8
   140004f05:	4c 03 c0             	add    %rax,%r8
   140004f08:	e9 85 fe ff ff       	jmpq   0x140004d92
   140004f0d:	48 8b 4c 24 28       	mov    0x28(%rsp),%rcx
   140004f12:	4c 8b f6             	mov    %rsi,%r14
   140004f15:	4c 8b 7d e8          	mov    -0x18(%rbp),%r15
   140004f19:	48 83 c1 fe          	add    $0xfffffffffffffffe,%rcx
   140004f1d:	48 89 4d c0          	mov    %rcx,-0x40(%rbp)
   140004f21:	4c 8b d9             	mov    %rcx,%r11
   140004f24:	44 89 95 98 00 00 00 	mov    %r10d,0x98(%rbp)
   140004f2b:	41 b9 01 00 00 00    	mov    $0x1,%r9d
   140004f31:	41 83 fa 40          	cmp    $0x40,%r10d
   140004f35:	76 07                	jbe    0x140004f3e
   140004f37:	ba 03 00 00 00       	mov    $0x3,%edx
